

Microchip MPLAB XC8 Assembler V2.10 build 88905656 
                                                                                               Fri Sep 13 13:48:05 2019

Microchip MPLAB XC8 C Compiler v2.10 (Free license) build 20190730164152 Og9 
     1                           	processor	16F1823
     2                           	opt	pw 120
     3                           	opt	flic
     4                           	psect	stringtext1,global,class=STRCODE,delta=2
     5                           	psect	stringtext2,global,class=STRCODE,delta=2
     6                           	psect	stringtext3,global,class=STRCODE,delta=2
     7                           	psect	stringtext4,global,class=STRCODE,delta=2
     8                           	psect	stringtext5,global,class=STRCODE,delta=2
     9                           	psect	stringtext6,global,class=STRCODE,delta=2
    10                           	psect	stringtext7,global,class=STRCODE,delta=2
    11                           	psect	stringtext8,global,class=STRCODE,delta=2
    12                           	psect	nvBANK0,global,class=BANK0,space=1,delta=1
    13                           	psect	cinit,global,class=CODE,merge=1,delta=2
    14                           	psect	bssBANK0,global,class=BANK0,space=1,delta=1
    15                           	psect	cstackCOMMON,global,class=COMMON,space=1,delta=1
    16                           	psect	cstackBANK0,global,class=BANK0,space=1,delta=1
    17                           	psect	maintext,global,class=CODE,merge=1,split=1,delta=2
    18                           	psect	text1,local,class=CODE,merge=1,delta=2
    19                           	psect	text2,local,class=CODE,merge=1,delta=2,group=1
    20                           	psect	text3,local,class=CODE,merge=1,delta=2,group=1
    21                           	psect	text4,local,class=CODE,merge=1,delta=2,group=1
    22                           	psect	text5,local,class=CODE,merge=1,delta=2,group=1
    23                           	psect	text6,local,class=CODE,merge=1,delta=2
    24                           	psect	text7,local,class=CODE,merge=1,delta=2
    25                           	psect	text8,local,class=CODE,merge=1,delta=2
    26                           	psect	text9,local,class=CODE,merge=1,delta=2
    27                           	psect	text10,local,class=CODE,merge=1,delta=2
    28                           	psect	intentry,global,class=CODE,delta=2
    29                           	dabs	1,0x7E,2
    30  0000                     
    31                           ; Version 2.10
    32                           ; Generated 31/07/2019 GMT
    33                           ; 
    34                           ; Copyright © 2019, Microchip Technology Inc. and its subsidiaries ("Microchip")
    35                           ; All rights reserved.
    36                           ; 
    37                           ; This software is developed by Microchip Technology Inc. and its subsidiaries ("Microch
      +                          ip").
    38                           ; 
    39                           ; Redistribution and use in source and binary forms, with or without modification, are
    40                           ; permitted provided that the following conditions are met:
    41                           ; 
    42                           ;     1. Redistributions of source code must retain the above copyright notice, this lis
      +                          t of
    43                           ;        conditions and the following disclaimer.
    44                           ; 
    45                           ;     2. Redistributions in binary form must reproduce the above copyright notice, this 
      +                          list
    46                           ;        of conditions and the following disclaimer in the documentation and/or other
    47                           ;        materials provided with the distribution.
    48                           ; 
    49                           ;     3. Microchip's name may not be used to endorse or promote products derived from th
      +                          is
    50                           ;        software without specific prior written permission.
    51                           ; 
    52                           ; THIS SOFTWARE IS PROVIDED BY MICROCHIP "AS IS" AND ANY EXPRESS OR IMPLIED WARRANTIES,
    53                           ; INCLUDING, BUT NOT LIMITED TO, THE IMPLIED WARRANTIES OF MERCHANTABILITY AND FITNESS F
      +                          OR
    54                           ; PURPOSE ARE DISCLAIMED.  IN NO EVENT SHALL MICROCHIP BE LIABLE FOR ANY DIRECT, INDIREC
      +                          T,
    55                           ; INCIDENTAL, SPECIAL, EXEMPLARY, OR CONSEQUENTIAL DAMAGES (INCLUDING BUT NOT LIMITED TO
    56                           ; PROCUREMENT OF SUBSTITUTE GOODS OR SERVICES; LOSS OF USE, DATA OR PROFITS; OR BUSINESS
    57                           ; INTERRUPTION) HOWSOEVER CAUSED AND ON ANY THEORY OF LIABILITY, WHETHER IN CONTRACT, ST
      +                          RICT
    58                           ; LIABILITY, OR TORT (INCLUDING NEGLIGENCE OR OTHERWISE) ARISING IN ANY WAY OUT OF THE U
      +                          SE OF
    59                           ; THIS SOFTWARE, EVEN IF ADVISED OF THE POSSIBILITY OF SUCH DAMAGE.
    60                           ; 
    61                           ; 
    62                           ; Code-generator required, PIC16F1823 Definitions
    63                           ; 
    64                           ; SFR Addresses
    65  0000                     	;# 
    66  0001                     	;# 
    67  0002                     	;# 
    68  0003                     	;# 
    69  0004                     	;# 
    70  0005                     	;# 
    71  0006                     	;# 
    72  0007                     	;# 
    73  0008                     	;# 
    74  0009                     	;# 
    75  000A                     	;# 
    76  000B                     	;# 
    77  000C                     	;# 
    78  000E                     	;# 
    79  0011                     	;# 
    80  0012                     	;# 
    81  0015                     	;# 
    82  0016                     	;# 
    83  0016                     	;# 
    84  0017                     	;# 
    85  0018                     	;# 
    86  0019                     	;# 
    87  001A                     	;# 
    88  001B                     	;# 
    89  001C                     	;# 
    90  001E                     	;# 
    91  001F                     	;# 
    92  008C                     	;# 
    93  008E                     	;# 
    94  0091                     	;# 
    95  0092                     	;# 
    96  0095                     	;# 
    97  0096                     	;# 
    98  0097                     	;# 
    99  0098                     	;# 
   100  0099                     	;# 
   101  009A                     	;# 
   102  009B                     	;# 
   103  009B                     	;# 
   104  009C                     	;# 
   105  009D                     	;# 
   106  009E                     	;# 
   107  010C                     	;# 
   108  010E                     	;# 
   109  0111                     	;# 
   110  0112                     	;# 
   111  0113                     	;# 
   112  0114                     	;# 
   113  0115                     	;# 
   114  0116                     	;# 
   115  0117                     	;# 
   116  0118                     	;# 
   117  0119                     	;# 
   118  011A                     	;# 
   119  011B                     	;# 
   120  011D                     	;# 
   121  011D                     	;# 
   122  018C                     	;# 
   123  018E                     	;# 
   124  0191                     	;# 
   125  0191                     	;# 
   126  0192                     	;# 
   127  0193                     	;# 
   128  0193                     	;# 
   129  0193                     	;# 
   130  0194                     	;# 
   131  0195                     	;# 
   132  0196                     	;# 
   133  0199                     	;# 
   134  019A                     	;# 
   135  019B                     	;# 
   136  019B                     	;# 
   137  019B                     	;# 
   138  019B                     	;# 
   139  019C                     	;# 
   140  019C                     	;# 
   141  019D                     	;# 
   142  019E                     	;# 
   143  019F                     	;# 
   144  020C                     	;# 
   145  020E                     	;# 
   146  0211                     	;# 
   147  0211                     	;# 
   148  0212                     	;# 
   149  0212                     	;# 
   150  0213                     	;# 
   151  0213                     	;# 
   152  0214                     	;# 
   153  0214                     	;# 
   154  0215                     	;# 
   155  0215                     	;# 
   156  0215                     	;# 
   157  0216                     	;# 
   158  0216                     	;# 
   159  0217                     	;# 
   160  0217                     	;# 
   161  0291                     	;# 
   162  0291                     	;# 
   163  0292                     	;# 
   164  0293                     	;# 
   165  0294                     	;# 
   166  0295                     	;# 
   167  0295                     	;# 
   168  0296                     	;# 
   169  0391                     	;# 
   170  0392                     	;# 
   171  0393                     	;# 
   172  039A                     	;# 
   173  039C                     	;# 
   174  039D                     	;# 
   175  039E                     	;# 
   176  039F                     	;# 
   177  0FE4                     	;# 
   178  0FE5                     	;# 
   179  0FE6                     	;# 
   180  0FE7                     	;# 
   181  0FE8                     	;# 
   182  0FE9                     	;# 
   183  0FEA                     	;# 
   184  0FEB                     	;# 
   185  0FED                     	;# 
   186  0FEE                     	;# 
   187  0FEF                     	;# 
   188  0000                     	;# 
   189  0001                     	;# 
   190  0002                     	;# 
   191  0003                     	;# 
   192  0004                     	;# 
   193  0005                     	;# 
   194  0006                     	;# 
   195  0007                     	;# 
   196  0008                     	;# 
   197  0009                     	;# 
   198  000A                     	;# 
   199  000B                     	;# 
   200  000C                     	;# 
   201  000E                     	;# 
   202  0011                     	;# 
   203  0012                     	;# 
   204  0015                     	;# 
   205  0016                     	;# 
   206  0016                     	;# 
   207  0017                     	;# 
   208  0018                     	;# 
   209  0019                     	;# 
   210  001A                     	;# 
   211  001B                     	;# 
   212  001C                     	;# 
   213  001E                     	;# 
   214  001F                     	;# 
   215  008C                     	;# 
   216  008E                     	;# 
   217  0091                     	;# 
   218  0092                     	;# 
   219  0095                     	;# 
   220  0096                     	;# 
   221  0097                     	;# 
   222  0098                     	;# 
   223  0099                     	;# 
   224  009A                     	;# 
   225  009B                     	;# 
   226  009B                     	;# 
   227  009C                     	;# 
   228  009D                     	;# 
   229  009E                     	;# 
   230  010C                     	;# 
   231  010E                     	;# 
   232  0111                     	;# 
   233  0112                     	;# 
   234  0113                     	;# 
   235  0114                     	;# 
   236  0115                     	;# 
   237  0116                     	;# 
   238  0117                     	;# 
   239  0118                     	;# 
   240  0119                     	;# 
   241  011A                     	;# 
   242  011B                     	;# 
   243  011D                     	;# 
   244  011D                     	;# 
   245  018C                     	;# 
   246  018E                     	;# 
   247  0191                     	;# 
   248  0191                     	;# 
   249  0192                     	;# 
   250  0193                     	;# 
   251  0193                     	;# 
   252  0193                     	;# 
   253  0194                     	;# 
   254  0195                     	;# 
   255  0196                     	;# 
   256  0199                     	;# 
   257  019A                     	;# 
   258  019B                     	;# 
   259  019B                     	;# 
   260  019B                     	;# 
   261  019B                     	;# 
   262  019C                     	;# 
   263  019C                     	;# 
   264  019D                     	;# 
   265  019E                     	;# 
   266  019F                     	;# 
   267  020C                     	;# 
   268  020E                     	;# 
   269  0211                     	;# 
   270  0211                     	;# 
   271  0212                     	;# 
   272  0212                     	;# 
   273  0213                     	;# 
   274  0213                     	;# 
   275  0214                     	;# 
   276  0214                     	;# 
   277  0215                     	;# 
   278  0215                     	;# 
   279  0215                     	;# 
   280  0216                     	;# 
   281  0216                     	;# 
   282  0217                     	;# 
   283  0217                     	;# 
   284  0291                     	;# 
   285  0291                     	;# 
   286  0292                     	;# 
   287  0293                     	;# 
   288  0294                     	;# 
   289  0295                     	;# 
   290  0295                     	;# 
   291  0296                     	;# 
   292  0391                     	;# 
   293  0392                     	;# 
   294  0393                     	;# 
   295  039A                     	;# 
   296  039C                     	;# 
   297  039D                     	;# 
   298  039E                     	;# 
   299  039F                     	;# 
   300  0FE4                     	;# 
   301  0FE5                     	;# 
   302  0FE6                     	;# 
   303  0FE7                     	;# 
   304  0FE8                     	;# 
   305  0FE9                     	;# 
   306  0FEA                     	;# 
   307  0FEB                     	;# 
   308  0FED                     	;# 
   309  0FEE                     	;# 
   310  0FEF                     	;# 
   311  0000                     	;# 
   312  0001                     	;# 
   313  0002                     	;# 
   314  0003                     	;# 
   315  0004                     	;# 
   316  0005                     	;# 
   317  0006                     	;# 
   318  0007                     	;# 
   319  0008                     	;# 
   320  0009                     	;# 
   321  000A                     	;# 
   322  000B                     	;# 
   323  000C                     	;# 
   324  000E                     	;# 
   325  0011                     	;# 
   326  0012                     	;# 
   327  0015                     	;# 
   328  0016                     	;# 
   329  0016                     	;# 
   330  0017                     	;# 
   331  0018                     	;# 
   332  0019                     	;# 
   333  001A                     	;# 
   334  001B                     	;# 
   335  001C                     	;# 
   336  001E                     	;# 
   337  001F                     	;# 
   338  008C                     	;# 
   339  008E                     	;# 
   340  0091                     	;# 
   341  0092                     	;# 
   342  0095                     	;# 
   343  0096                     	;# 
   344  0097                     	;# 
   345  0098                     	;# 
   346  0099                     	;# 
   347  009A                     	;# 
   348  009B                     	;# 
   349  009B                     	;# 
   350  009C                     	;# 
   351  009D                     	;# 
   352  009E                     	;# 
   353  010C                     	;# 
   354  010E                     	;# 
   355  0111                     	;# 
   356  0112                     	;# 
   357  0113                     	;# 
   358  0114                     	;# 
   359  0115                     	;# 
   360  0116                     	;# 
   361  0117                     	;# 
   362  0118                     	;# 
   363  0119                     	;# 
   364  011A                     	;# 
   365  011B                     	;# 
   366  011D                     	;# 
   367  011D                     	;# 
   368  018C                     	;# 
   369  018E                     	;# 
   370  0191                     	;# 
   371  0191                     	;# 
   372  0192                     	;# 
   373  0193                     	;# 
   374  0193                     	;# 
   375  0193                     	;# 
   376  0194                     	;# 
   377  0195                     	;# 
   378  0196                     	;# 
   379  0199                     	;# 
   380  019A                     	;# 
   381  019B                     	;# 
   382  019B                     	;# 
   383  019B                     	;# 
   384  019B                     	;# 
   385  019C                     	;# 
   386  019C                     	;# 
   387  019D                     	;# 
   388  019E                     	;# 
   389  019F                     	;# 
   390  020C                     	;# 
   391  020E                     	;# 
   392  0211                     	;# 
   393  0211                     	;# 
   394  0212                     	;# 
   395  0212                     	;# 
   396  0213                     	;# 
   397  0213                     	;# 
   398  0214                     	;# 
   399  0214                     	;# 
   400  0215                     	;# 
   401  0215                     	;# 
   402  0215                     	;# 
   403  0216                     	;# 
   404  0216                     	;# 
   405  0217                     	;# 
   406  0217                     	;# 
   407  0291                     	;# 
   408  0291                     	;# 
   409  0292                     	;# 
   410  0293                     	;# 
   411  0294                     	;# 
   412  0295                     	;# 
   413  0295                     	;# 
   414  0296                     	;# 
   415  0391                     	;# 
   416  0392                     	;# 
   417  0393                     	;# 
   418  039A                     	;# 
   419  039C                     	;# 
   420  039D                     	;# 
   421  039E                     	;# 
   422  039F                     	;# 
   423  0FE4                     	;# 
   424  0FE5                     	;# 
   425  0FE6                     	;# 
   426  0FE7                     	;# 
   427  0FE8                     	;# 
   428  0FE9                     	;# 
   429  0FEA                     	;# 
   430  0FEB                     	;# 
   431  0FED                     	;# 
   432  0FEE                     	;# 
   433  0FEF                     	;# 
   434                           
   435                           	psect	stringtext1
   436  06C3                     __pstringtext1:	
   437  06C3                     _note_hh:	
   438  06C3  3416               	retlw	22
   439  06C4  3404               	retlw	4
   440  06C5  3497               	retlw	151
   441  06C6  3404               	retlw	4
   442  06C7  3426               	retlw	38
   443  06C8  3405               	retlw	5
   444  06C9  3475               	retlw	117
   445  06CA  3405               	retlw	5
   446  06CB  3420               	retlw	32
   447  06CC  3406               	retlw	6
   448  06CD  34E0               	retlw	224
   449  06CE  3406               	retlw	6
   450  06CF  34AF               	retlw	175
   451  06D0  3407               	retlw	7
   452  06D1                     __end_of_note_hh:	
   453                           
   454                           	psect	stringtext2
   455  06D1                     __pstringtext2:	
   456  06D1                     _note_h:	
   457  06D1  340B               	retlw	11
   458  06D2  3402               	retlw	2
   459  06D3  344B               	retlw	75
   460  06D4  3402               	retlw	2
   461  06D5  3493               	retlw	147
   462  06D6  3402               	retlw	2
   463  06D7  34BA               	retlw	186
   464  06D8  3402               	retlw	2
   465  06D9  3410               	retlw	16
   466  06DA  3403               	retlw	3
   467  06DB  3470               	retlw	112
   468  06DC  3403               	retlw	3
   469  06DD  34DC               	retlw	220
   470  06DE  3403               	retlw	3
   471  06DF                     __end_of_note_h:	
   472                           
   473                           	psect	stringtext3
   474  06DF                     __pstringtext3:	
   475  06DF                     _note_m:	
   476  06DF  3406               	retlw	6
   477  06E0  3401               	retlw	1
   478  06E1  3426               	retlw	38
   479  06E2  3401               	retlw	1
   480  06E3  344A               	retlw	74
   481  06E4  3401               	retlw	1
   482  06E5  345D               	retlw	93
   483  06E6  3401               	retlw	1
   484  06E7  3488               	retlw	136
   485  06E8  3401               	retlw	1
   486  06E9  34B8               	retlw	184
   487  06EA  3401               	retlw	1
   488  06EB  34EE               	retlw	238
   489  06EC  3401               	retlw	1
   490  06ED                     __end_of_note_m:	
   491                           
   492                           	psect	stringtext4
   493  06ED                     __pstringtext4:	
   494  06ED                     _note_l:	
   495  06ED  3483               	retlw	131
   496  06EE  3400               	retlw	0
   497  06EF  3493               	retlw	147
   498  06F0  3400               	retlw	0
   499  06F1  34A5               	retlw	165
   500  06F2  3400               	retlw	0
   501  06F3  34AE               	retlw	174
   502  06F4  3400               	retlw	0
   503  06F5  34C4               	retlw	196
   504  06F6  3400               	retlw	0
   505  06F7  34DC               	retlw	220
   506  06F8  3400               	retlw	0
   507  06F9  34F7               	retlw	247
   508  06FA  3400               	retlw	0
   509  06FB                     __end_of_note_l:	
   510                           
   511                           	psect	stringtext5
   512  06FB                     __pstringtext5:	
   513  06FB                     _note_ll:	
   514  06FB  3441               	retlw	65
   515  06FC  3400               	retlw	0
   516  06FD  3449               	retlw	73
   517  06FE  3400               	retlw	0
   518  06FF  3452               	retlw	82
   519  0700  3400               	retlw	0
   520  0701  3457               	retlw	87
   521  0702  3400               	retlw	0
   522  0703  3462               	retlw	98
   523  0704  3400               	retlw	0
   524  0705  346E               	retlw	110
   525  0706  3400               	retlw	0
   526  0707  347B               	retlw	123
   527  0708  3400               	retlw	0
   528  0709                     __end_of_note_ll:	
   529                           
   530                           	psect	stringtext6
   531  072D                     __pstringtext6:	
   532  072D                     _speed:	
   533  072D  3478               	retlw	120
   534  072E  3400               	retlw	0
   535  072F                     __end_of_speed:	
   536                           
   537                           	psect	stringtext7
   538  072F                     __pstringtext7:	
   539  072F                     _lzttdmg_speed:	
   540  072F  3448               	retlw	72
   541  0730                     __end_of_lzttdmg_speed:	
   542                           
   543                           	psect	stringtext8
   544  001C                     __pstringtext8:	
   545  001C                     _lzttdmg:	
   546  001C  3406               	retlw	6
   547  001D  3402               	retlw	2
   548  001E  3408               	retlw	8
   549  001F  3406               	retlw	6
   550  0020  3402               	retlw	2
   551  0021  3408               	retlw	8
   552  0022  3406               	retlw	6
   553  0023  3402               	retlw	2
   554  0024  3410               	retlw	16
   555  0025  3401               	retlw	1
   556  0026  3403               	retlw	3
   557  0027  3410               	retlw	16
   558  0028  3406               	retlw	6
   559  0029  3402               	retlw	2
   560  002A  3410               	retlw	16
   561  002B  3401               	retlw	1
   562  002C  3403               	retlw	3
   563  002D  3410               	retlw	16
   564  002E  3405               	retlw	5
   565  002F  3403               	retlw	3
   566  0030  3408               	retlw	8
   567  0031  3401               	retlw	1
   568  0032  3403               	retlw	3
   569  0033  3408               	retlw	8
   570  0034  3401               	retlw	1
   571  0035  3403               	retlw	3
   572  0036  3408               	retlw	8
   573  0037  3401               	retlw	1
   574  0038  3403               	retlw	3
   575  0039  3410               	retlw	16
   576  003A  3401               	retlw	1
   577  003B  3403               	retlw	3
   578  003C  3410               	retlw	16
   579  003D  3403               	retlw	3
   580  003E  3403               	retlw	3
   581  003F  3408               	retlw	8
   582  0040  3403               	retlw	3
   583  0041  3403               	retlw	3
   584  0042  3408               	retlw	8
   585  0043  3403               	retlw	3
   586  0044  3403               	retlw	3
   587  0045  3410               	retlw	16
   588  0046  3404               	retlw	4
   589  0047  3403               	retlw	3
   590  0048  3410               	retlw	16
   591  0049  3403               	retlw	3
   592  004A  3403               	retlw	3
   593  004B  3410               	retlw	16
   594  004C  3404               	retlw	4
   595  004D  3403               	retlw	3
   596  004E  3410               	retlw	16
   597  004F  3403               	retlw	3
   598  0050  3403               	retlw	3
   599  0051  3408               	retlw	8
   600  0052  3402               	retlw	2
   601  0053  3403               	retlw	3
   602  0054  3408               	retlw	8
   603  0055  3402               	retlw	2
   604  0056  3403               	retlw	3
   605  0057  3408               	retlw	8
   606  0058  3401               	retlw	1
   607  0059  3403               	retlw	3
   608  005A  3410               	retlw	16
   609  005B  3407               	retlw	7
   610  005C  3402               	retlw	2
   611  005D  3410               	retlw	16
   612  005E  3406               	retlw	6
   613  005F  3402               	retlw	2
   614  0060  3408               	retlw	8
   615  0061  3406               	retlw	6
   616  0062  3402               	retlw	2
   617  0063  3408               	retlw	8
   618  0064  3406               	retlw	6
   619  0065  3402               	retlw	2
   620  0066  3410               	retlw	16
   621  0067  3401               	retlw	1
   622  0068  3403               	retlw	3
   623  0069  3410               	retlw	16
   624  006A  3406               	retlw	6
   625  006B  3402               	retlw	2
   626  006C  3410               	retlw	16
   627  006D  3401               	retlw	1
   628  006E  3403               	retlw	3
   629  006F  3410               	retlw	16
   630  0070  3405               	retlw	5
   631  0071  3403               	retlw	3
   632  0072  3408               	retlw	8
   633  0073  3401               	retlw	1
   634  0074  3403               	retlw	3
   635  0075  3408               	retlw	8
   636  0076  3401               	retlw	1
   637  0077  3403               	retlw	3
   638  0078  3408               	retlw	8
   639  0079  3401               	retlw	1
   640  007A  3403               	retlw	3
   641  007B  3410               	retlw	16
   642  007C  3402               	retlw	2
   643  007D  3403               	retlw	3
   644  007E  3410               	retlw	16
   645  007F  3403               	retlw	3
   646  0080  3403               	retlw	3
   647  0081  3410               	retlw	16
   648  0082  3403               	retlw	3
   649  0083  3403               	retlw	3
   650  0084  3410               	retlw	16
   651  0085  3403               	retlw	3
   652  0086  3403               	retlw	3
   653  0087  3408               	retlw	8
   654  0088  3403               	retlw	3
   655  0089  3403               	retlw	3
   656  008A  3408               	retlw	8
   657  008B  3402               	retlw	2
   658  008C  3403               	retlw	3
   659  008D  3410               	retlw	16
   660  008E  3401               	retlw	1
   661  008F  3403               	retlw	3
   662  0090  3410               	retlw	16
   663  0091  3407               	retlw	7
   664  0092  3402               	retlw	2
   665  0093  3404               	retlw	4
   666  0094  3401               	retlw	1
   667  0095  3403               	retlw	3
   668  0096  3408               	retlw	8
   669  0097  3402               	retlw	2
   670  0098  3403               	retlw	3
   671  0099  3408               	retlw	8
   672  009A  3403               	retlw	3
   673  009B  3403               	retlw	3
   674  009C  3408               	retlw	8
   675  009D  3403               	retlw	3
   676  009E  3403               	retlw	3
   677  009F  3408               	retlw	8
   678  00A0  3403               	retlw	3
   679  00A1  3403               	retlw	3
   680  00A2  3408               	retlw	8
   681  00A3  3401               	retlw	1
   682  00A4  3404               	retlw	4
   683  00A5  3408               	retlw	8
   684  00A6  3404               	retlw	4
   685  00A7  3403               	retlw	3
   686  00A8  3408               	retlw	8
   687  00A9  3404               	retlw	4
   688  00AA  3403               	retlw	3
   689  00AB  3408               	retlw	8
   690  00AC  3404               	retlw	4
   691  00AD  3403               	retlw	3
   692  00AE  3408               	retlw	8
   693  00AF  3401               	retlw	1
   694  00B0  3404               	retlw	4
   695  00B1  3408               	retlw	8
   696  00B2  3405               	retlw	5
   697  00B3  3403               	retlw	3
   698  00B4  3408               	retlw	8
   699  00B5  3405               	retlw	5
   700  00B6  3403               	retlw	3
   701  00B7  3408               	retlw	8
   702  00B8  3405               	retlw	5
   703  00B9  3403               	retlw	3
   704  00BA  3410               	retlw	16
   705  00BB  3404               	retlw	4
   706  00BC  3403               	retlw	3
   707  00BD  3410               	retlw	16
   708  00BE  3403               	retlw	3
   709  00BF  3403               	retlw	3
   710  00C0  3410               	retlw	16
   711  00C1  3404               	retlw	4
   712  00C2  3403               	retlw	3
   713  00C3  3410               	retlw	16
   714  00C4  3403               	retlw	3
   715  00C5  3403               	retlw	3
   716  00C6  3408               	retlw	8
   717  00C7  3402               	retlw	2
   718  00C8  3403               	retlw	3
   719  00C9  3408               	retlw	8
   720  00CA  3402               	retlw	2
   721  00CB  3403               	retlw	3
   722  00CC  3408               	retlw	8
   723  00CD  3401               	retlw	1
   724  00CE  3403               	retlw	3
   725  00CF  3410               	retlw	16
   726  00D0  3407               	retlw	7
   727  00D1  3402               	retlw	2
   728  00D2  3410               	retlw	16
   729  00D3  3406               	retlw	6
   730  00D4  3402               	retlw	2
   731  00D5  3408               	retlw	8
   732  00D6  3406               	retlw	6
   733  00D7  3402               	retlw	2
   734  00D8  3408               	retlw	8
   735  00D9  3406               	retlw	6
   736  00DA  3402               	retlw	2
   737  00DB  3410               	retlw	16
   738  00DC  3401               	retlw	1
   739  00DD  3403               	retlw	3
   740  00DE  3410               	retlw	16
   741  00DF  3406               	retlw	6
   742  00E0  3402               	retlw	2
   743  00E1  3410               	retlw	16
   744  00E2  3401               	retlw	1
   745  00E3  3403               	retlw	3
   746  00E4  3410               	retlw	16
   747  00E5  3405               	retlw	5
   748  00E6  3403               	retlw	3
   749  00E7  3408               	retlw	8
   750  00E8  3401               	retlw	1
   751  00E9  3403               	retlw	3
   752  00EA  3408               	retlw	8
   753  00EB  3401               	retlw	1
   754  00EC  3403               	retlw	3
   755  00ED  3408               	retlw	8
   756  00EE  3401               	retlw	1
   757  00EF  3403               	retlw	3
   758  00F0  3410               	retlw	16
   759  00F1  3401               	retlw	1
   760  00F2  3403               	retlw	3
   761  00F3  3410               	retlw	16
   762  00F4  3403               	retlw	3
   763  00F5  3403               	retlw	3
   764  00F6  3410               	retlw	16
   765  00F7  3403               	retlw	3
   766  00F8  3403               	retlw	3
   767  00F9  3410               	retlw	16
   768  00FA  3403               	retlw	3
   769  00FB  3403               	retlw	3
   770  00FC  3408               	retlw	8
   771  00FD  3403               	retlw	3
   772  00FE  3403               	retlw	3
   773  00FF  3408               	retlw	8
   774  0100  3402               	retlw	2
   775  0101  3403               	retlw	3
   776  0102  3410               	retlw	16
   777  0103  3401               	retlw	1
   778  0104  3403               	retlw	3
   779  0105  3410               	retlw	16
   780  0106  3407               	retlw	7
   781  0107  3402               	retlw	2
   782  0108  3404               	retlw	4
   783  0109  3400               	retlw	0
   784  010A  3403               	retlw	3
   785  010B  3404               	retlw	4
   786  010C  3400               	retlw	0
   787  010D  3403               	retlw	3
   788  010E  3404               	retlw	4
   789  010F  3400               	retlw	0
   790  0110  3403               	retlw	3
   791  0111  3404               	retlw	4
   792  0112  3400               	retlw	0
   793  0113  3403               	retlw	3
   794  0114  3408               	retlw	8
   795  0115  3400               	retlw	0
   796  0116  3403               	retlw	3
   797  0117  3410               	retlw	16
   798  0118  3405               	retlw	5
   799  0119  3403               	retlw	3
   800  011A  3410               	retlw	16
   801  011B  3401               	retlw	1
   802  011C  3404               	retlw	4
   803  011D  3410               	retlw	16
   804  011E  3407               	retlw	7
   805  011F  3403               	retlw	3
   806  0120  3410               	retlw	16
   807  0121  3406               	retlw	6
   808  0122  3403               	retlw	3
   809  0123  3410               	retlw	16
   810  0124  3407               	retlw	7
   811  0125  3403               	retlw	3
   812  0126  3410               	retlw	16
   813  0127  3401               	retlw	1
   814  0128  3404               	retlw	4
   815  0129  3404               	retlw	4
   816  012A  3401               	retlw	1
   817  012B  3404               	retlw	4
   818  012C  3408               	retlw	8
   819  012D  3406               	retlw	6
   820  012E  3403               	retlw	3
   821  012F  3410               	retlw	16
   822  0130  3407               	retlw	7
   823  0131  3403               	retlw	3
   824  0132  3410               	retlw	16
   825  0133  3407               	retlw	7
   826  0134  3403               	retlw	3
   827  0135  3404               	retlw	4
   828  0136  3407               	retlw	7
   829  0137  3403               	retlw	3
   830  0138  3408               	retlw	8
   831  0139  3405               	retlw	5
   832  013A  3403               	retlw	3
   833  013B  3410               	retlw	16
   834  013C  3405               	retlw	5
   835  013D  3403               	retlw	3
   836  013E  3410               	retlw	16
   837  013F  3405               	retlw	5
   838  0140  3403               	retlw	3
   839  0141  3408               	retlw	8
   840  0142  3405               	retlw	5
   841  0143  3403               	retlw	3
   842  0144  3410               	retlw	16
   843  0145  3405               	retlw	5
   844  0146  3403               	retlw	3
   845  0147  3410               	retlw	16
   846  0148  3405               	retlw	5
   847  0149  3403               	retlw	3
   848  014A  3404               	retlw	4
   849  014B  3400               	retlw	0
   850  014C  3403               	retlw	3
   851  014D  3408               	retlw	8
   852  014E  3400               	retlw	0
   853  014F  3403               	retlw	3
   854  0150  3410               	retlw	16
   855  0151  3407               	retlw	7
   856  0152  3403               	retlw	3
   857  0153  3410               	retlw	16
   858  0154  3407               	retlw	7
   859  0155  3403               	retlw	3
   860  0156  3410               	retlw	16
   861  0157  3407               	retlw	7
   862  0158  3403               	retlw	3
   863  0159  3410               	retlw	16
   864  015A  3406               	retlw	6
   865  015B  3403               	retlw	3
   866  015C  3410               	retlw	16
   867  015D  3407               	retlw	7
   868  015E  3403               	retlw	3
   869  015F  3410               	retlw	16
   870  0160  3401               	retlw	1
   871  0161  3404               	retlw	4
   872  0162  3404               	retlw	4
   873  0163  3401               	retlw	1
   874  0164  3404               	retlw	4
   875  0165  3408               	retlw	8
   876  0166  3407               	retlw	7
   877  0167  3403               	retlw	3
   878  0168  3410               	retlw	16
   879  0169  3407               	retlw	7
   880  016A  3403               	retlw	3
   881  016B  3410               	retlw	16
   882  016C  3407               	retlw	7
   883  016D  3403               	retlw	3
   884  016E  3404               	retlw	4
   885  016F  3407               	retlw	7
   886  0170  3403               	retlw	3
   887  0171  3408               	retlw	8
   888  0172  3405               	retlw	5
   889  0173  3403               	retlw	3
   890  0174  3410               	retlw	16
   891  0175  3405               	retlw	5
   892  0176  3403               	retlw	3
   893  0177  3410               	retlw	16
   894  0178  3400               	retlw	0
   895  0179  3403               	retlw	3
   896  017A  3408               	retlw	8
   897  017B  3405               	retlw	5
   898  017C  3403               	retlw	3
   899  017D  3410               	retlw	16
   900  017E  3405               	retlw	5
   901  017F  3403               	retlw	3
   902  0180  3410               	retlw	16
   903  0181  3400               	retlw	0
   904  0182  3403               	retlw	3
   905  0183  3404               	retlw	4
   906  0184  3400               	retlw	0
   907  0185  3403               	retlw	3
   908  0186  3408               	retlw	8
   909  0187  3400               	retlw	0
   910  0188  3403               	retlw	3
   911  0189  3410               	retlw	16
   912  018A  3401               	retlw	1
   913  018B  3404               	retlw	4
   914  018C  3410               	retlw	16
   915  018D  3401               	retlw	1
   916  018E  3404               	retlw	4
   917  018F  3410               	retlw	16
   918  0190  3407               	retlw	7
   919  0191  3403               	retlw	3
   920  0192  3410               	retlw	16
   921  0193  3406               	retlw	6
   922  0194  3403               	retlw	3
   923  0195  3410               	retlw	16
   924  0196  3407               	retlw	7
   925  0197  3403               	retlw	3
   926  0198  3410               	retlw	16
   927  0199  3401               	retlw	1
   928  019A  3404               	retlw	4
   929  019B  3404               	retlw	4
   930  019C  3401               	retlw	1
   931  019D  3404               	retlw	4
   932  019E  3408               	retlw	8
   933  019F  3401               	retlw	1
   934  01A0  3404               	retlw	4
   935  01A1  3410               	retlw	16
   936  01A2  3402               	retlw	2
   937  01A3  3404               	retlw	4
   938  01A4  3410               	retlw	16
   939  01A5  3402               	retlw	2
   940  01A6  3404               	retlw	4
   941  01A7  3404               	retlw	4
   942  01A8  3402               	retlw	2
   943  01A9  3404               	retlw	4
   944  01AA  3408               	retlw	8
   945  01AB  3401               	retlw	1
   946  01AC  3404               	retlw	4
   947  01AD  3410               	retlw	16
   948  01AE  3403               	retlw	3
   949  01AF  3404               	retlw	4
   950  01B0  3410               	retlw	16
   951  01B1  3403               	retlw	3
   952  01B2  3404               	retlw	4
   953  01B3  3404               	retlw	4
   954  01B4  3403               	retlw	3
   955  01B5  3404               	retlw	4
   956  01B6  3408               	retlw	8
   957  01B7  3402               	retlw	2
   958  01B8  3404               	retlw	4
   959  01B9  3410               	retlw	16
   960  01BA  3407               	retlw	7
   961  01BB  3403               	retlw	3
   962  01BC  3410               	retlw	16
   963  01BD  3400               	retlw	0
   964  01BE  3403               	retlw	3
   965  01BF  3408               	retlw	8
   966  01C0  3407               	retlw	7
   967  01C1  3403               	retlw	3
   968  01C2  3410               	retlw	16
   969  01C3  3407               	retlw	7
   970  01C4  3403               	retlw	3
   971  01C5  3410               	retlw	16
   972  01C6  3401               	retlw	1
   973  01C7  3404               	retlw	4
   974  01C8  3410               	retlw	16
   975  01C9  3407               	retlw	7
   976  01CA  3403               	retlw	3
   977  01CB  3410               	retlw	16
   978  01CC  3406               	retlw	6
   979  01CD  3403               	retlw	3
   980  01CE  3410               	retlw	16
   981  01CF  3407               	retlw	7
   982  01D0  3403               	retlw	3
   983  01D1  3410               	retlw	16
   984  01D2  3401               	retlw	1
   985  01D3  3404               	retlw	4
   986  01D4  3408               	retlw	8
   987  01D5  3401               	retlw	1
   988  01D6  3404               	retlw	4
   989  01D7  3410               	retlw	16
   990  01D8  3401               	retlw	1
   991  01D9  3404               	retlw	4
   992  01DA  3410               	retlw	16
   993  01DB  3400               	retlw	0
   994  01DC  3403               	retlw	3
   995  01DD  3408               	retlw	8
   996  01DE  3407               	retlw	7
   997  01DF  3403               	retlw	3
   998  01E0  3410               	retlw	16
   999  01E1  3401               	retlw	1
  1000  01E2  3404               	retlw	4
  1001  01E3  3410               	retlw	16
  1002  01E4  3400               	retlw	0
  1003  01E5  3403               	retlw	3
  1004  01E6  3408               	retlw	8
  1005  01E7  3407               	retlw	7
  1006  01E8  3403               	retlw	3
  1007  01E9  3410               	retlw	16
  1008  01EA  3401               	retlw	1
  1009  01EB  3404               	retlw	4
  1010  01EC  3410               	retlw	16
  1011  01ED  3400               	retlw	0
  1012  01EE  3403               	retlw	3
  1013  01EF  3408               	retlw	8
  1014  01F0  3405               	retlw	5
  1015  01F1  3403               	retlw	3
  1016  01F2  3410               	retlw	16
  1017  01F3  3406               	retlw	6
  1018  01F4  3403               	retlw	3
  1019  01F5  3410               	retlw	16
  1020  01F6  3400               	retlw	0
  1021  01F7  3403               	retlw	3
  1022  01F8  3408               	retlw	8
  1023  01F9  3405               	retlw	5
  1024  01FA  3403               	retlw	3
  1025  01FB  3410               	retlw	16
  1026  01FC  3406               	retlw	6
  1027  01FD  3403               	retlw	3
  1028  01FE  3410               	retlw	16
  1029  01FF  3400               	retlw	0
  1030  0200  3403               	retlw	3
  1031  0201  3408               	retlw	8
  1032  0202  3405               	retlw	5
  1033  0203  3403               	retlw	3
  1034  0204  3410               	retlw	16
  1035  0205  3406               	retlw	6
  1036  0206  3403               	retlw	3
  1037  0207  3410               	retlw	16
  1038  0208  3400               	retlw	0
  1039  0209  3403               	retlw	3
  1040  020A  3408               	retlw	8
  1041  020B  3405               	retlw	5
  1042  020C  3403               	retlw	3
  1043  020D  3410               	retlw	16
  1044  020E  3405               	retlw	5
  1045  020F  3403               	retlw	3
  1046  0210  3410               	retlw	16
  1047  0211  3405               	retlw	5
  1048  0212  3403               	retlw	3
  1049  0213  3410               	retlw	16
  1050  0214  3404               	retlw	4
  1051  0215  3403               	retlw	3
  1052  0216  3410               	retlw	16
  1053  0217  3403               	retlw	3
  1054  0218  3403               	retlw	3
  1055  0219  3410               	retlw	16
  1056  021A  3402               	retlw	2
  1057  021B  3403               	retlw	3
  1058  021C  3410               	retlw	16
  1059  021D  3401               	retlw	1
  1060  021E  3403               	retlw	3
  1061  021F  3404               	retlw	4
  1062  0220  3401               	retlw	1
  1063  0221  3404               	retlw	4
  1064  0222  3404               	retlw	4
  1065  0223  3407               	retlw	7
  1066  0224  3403               	retlw	3
  1067  0225  3408               	retlw	8
  1068  0226  3407               	retlw	7
  1069  0227  3403               	retlw	3
  1070  0228  3410               	retlw	16
  1071  0229  3405               	retlw	5
  1072  022A  3403               	retlw	3
  1073  022B  3410               	retlw	16
  1074  022C  3405               	retlw	5
  1075  022D  3403               	retlw	3
  1076  022E  3410               	retlw	16
  1077  022F  3404               	retlw	4
  1078  0230  3403               	retlw	3
  1079  0231  3410               	retlw	16
  1080  0232  3403               	retlw	3
  1081  0233  3403               	retlw	3
  1082  0234  3410               	retlw	16
  1083  0235  3402               	retlw	2
  1084  0236  3403               	retlw	3
  1085  0237  3410               	retlw	16
  1086  0238  3400               	retlw	0
  1087  0239  3400               	retlw	0
  1088  023A  3400               	retlw	0
  1089  023B                     __end_of_lzttdmg:	
  1090                           
  1091                           	psect	nvBANK0
  1092  0056                     __pnvBANK0:	
  1093  0056                     _ds_temp:	
  1094  0056                     	ds	4
  1095  000E                     _PORTC	set	14
  1096  000C                     _PORTA	set	12
  1097  0016                     _TMR1L	set	22
  1098  0017                     _TMR1H	set	23
  1099  005F                     _GIE	set	95
  1100  005E                     _PEIE	set	94
  1101  0088                     _TMR1IF	set	136
  1102  00C0                     _TMR1ON	set	192
  1103  008E                     _TRISC	set	142
  1104  008C                     _TRISA	set	140
  1105  0099                     _OSCCON	set	153
  1106  0488                     _TMR1IE	set	1160
  1107  0473                     _TRISC3	set	1139
  1108  010E                     _LATC	set	270
  1109  010C                     _LATA	set	268
  1110  0873                     _LATC3	set	2163
  1111  018E                     _ANSELC	set	398
  1112  018C                     _ANSELA	set	396
  1113                           
  1114                           ; #config settings
  1115  0000                     
  1116                           	psect	cinit
  1117  0015                     start_initialization:	
  1118  0015                     __initialization:	
  1119                           
  1120                           ; Clear objects allocated to BANK0
  1121  0015  0020               	movlb	0	; select bank0
  1122  0016  01DA               	clrf	__pbssBANK0& (0+127)
  1123  0017  01DB               	clrf	(__pbssBANK0+1)& (0+127)
  1124  0018  01DC               	clrf	(__pbssBANK0+2)& (0+127)
  1125  0019                     end_of_initialization:	
  1126                           ;End of C runtime variable initialization code
  1127                           
  1128  0019                     __end_of__initialization:	
  1129  0019  107E               	bcf	int$flags,0	;clear compiler interrupt flag (level 1)
  1130  001A  0020               	movlb	0
  1131  001B  2BB4               	ljmp	_main	;jump to C main() function
  1132                           
  1133                           	psect	bssBANK0
  1134  005A                     __pbssBANK0:	
  1135  005A                     _tmr1_l:	
  1136  005A                     	ds	1
  1137  005B                     _tmr1_h:	
  1138  005B                     	ds	1
  1139  005C                     _tmr1_con:	
  1140  005C                     	ds	1
  1141                           
  1142                           	psect	cstackCOMMON
  1143  0070                     __pcstackCOMMON:	
  1144  0070                     ?_PORT_Init:	
  1145  0070                     ??_PORT_Init:	
  1146                           ; 1 bytes @ 0x0
  1147                           
  1148  0070                     ?_PORTA_Init:	
  1149                           ; 1 bytes @ 0x0
  1150                           
  1151  0070                     ??_PORTA_Init:	
  1152                           ; 1 bytes @ 0x0
  1153                           
  1154  0070                     ?_PORTC_Init:	
  1155                           ; 1 bytes @ 0x0
  1156                           
  1157  0070                     ??_PORTC_Init:	
  1158                           ; 1 bytes @ 0x0
  1159                           
  1160  0070                     ?_Beep_Init:	
  1161                           ; 1 bytes @ 0x0
  1162                           
  1163  0070                     ??_Beep_Init:	
  1164                           ; 1 bytes @ 0x0
  1165                           
  1166  0070                     ?_TMR1_Init:	
  1167                           ; 1 bytes @ 0x0
  1168                           
  1169  0070                     ??_TMR1_Init:	
  1170                           ; 1 bytes @ 0x0
  1171                           
  1172  0070                     ?_isr:	
  1173                           ; 1 bytes @ 0x0
  1174                           
  1175  0070                     ??_isr:	
  1176                           ; 1 bytes @ 0x0
  1177                           
  1178  0070                     ?_delay:	
  1179                           ; 1 bytes @ 0x0
  1180                           
  1181  0070                     ??_delay:	
  1182                           ; 1 bytes @ 0x0
  1183                           
  1184  0070                     ?_main:	
  1185                           ; 1 bytes @ 0x0
  1186                           
  1187  0070                     ?___awdiv:	
  1188                           ; 1 bytes @ 0x0
  1189                           
  1190  0070                     ?___aldiv:	
  1191                           ; 2 bytes @ 0x0
  1192                           
  1193  0070                     ?___xxtofl:	
  1194                           ; 4 bytes @ 0x0
  1195                           
  1196  0070                     ___awdiv@divisor:	
  1197                           ; 4 bytes @ 0x0
  1198                           
  1199  0070                     ___aldiv@divisor:	
  1200                           ; 2 bytes @ 0x0
  1201                           
  1202  0070                     ___xxtofl@val:	
  1203                           ; 4 bytes @ 0x0
  1204                           
  1205                           
  1206                           ; 4 bytes @ 0x0
  1207  0070                     	ds	2
  1208  0072                     delay@t:	
  1209  0072                     ___awdiv@dividend:	
  1210                           ; 1 bytes @ 0x2
  1211                           
  1212                           
  1213                           ; 2 bytes @ 0x2
  1214  0072                     	ds	2
  1215  0074                     ??___awdiv:	
  1216  0074                     ??___xxtofl:	
  1217                           ; 1 bytes @ 0x4
  1218                           
  1219  0074                     ___aldiv@dividend:	
  1220                           ; 1 bytes @ 0x4
  1221                           
  1222                           
  1223                           ; 4 bytes @ 0x4
  1224  0074                     	ds	1
  1225  0075                     ___awdiv@counter:	
  1226                           
  1227                           ; 1 bytes @ 0x5
  1228  0075                     	ds	1
  1229  0076                     ___awdiv@sign:	
  1230                           
  1231                           ; 1 bytes @ 0x6
  1232  0076                     	ds	1
  1233  0077                     ___awdiv@quotient:	
  1234                           
  1235                           ; 2 bytes @ 0x7
  1236  0077                     	ds	1
  1237  0078                     ??___aldiv:	
  1238  0078                     ___xxtofl@sign:	
  1239                           ; 1 bytes @ 0x8
  1240                           
  1241                           
  1242                           ; 1 bytes @ 0x8
  1243  0078                     	ds	1
  1244  0079                     ___xxtofl@exp:	
  1245                           
  1246                           ; 1 bytes @ 0x9
  1247  0079                     	ds	1
  1248  007A                     ___xxtofl@arg:	
  1249                           
  1250                           ; 4 bytes @ 0xA
  1251  007A                     	ds	4
  1252                           
  1253                           	psect	cstackBANK0
  1254  0020                     __pcstackBANK0:	
  1255  0020                     ?___fldiv:	
  1256  0020                     ___aldiv@counter:	
  1257                           ; 4 bytes @ 0x0
  1258                           
  1259  0020                     ___fldiv@a:	
  1260                           ; 1 bytes @ 0x0
  1261                           
  1262                           
  1263                           ; 4 bytes @ 0x0
  1264  0020                     	ds	1
  1265  0021                     ___aldiv@sign:	
  1266                           
  1267                           ; 1 bytes @ 0x1
  1268  0021                     	ds	1
  1269  0022                     ___aldiv@quotient:	
  1270                           
  1271                           ; 4 bytes @ 0x2
  1272  0022                     	ds	2
  1273  0024                     ___fldiv@b:	
  1274                           
  1275                           ; 4 bytes @ 0x4
  1276  0024                     	ds	4
  1277  0028                     ??___fldiv:	
  1278                           
  1279                           ; 1 bytes @ 0x8
  1280  0028                     	ds	5
  1281  002D                     ___fldiv@rem:	
  1282                           
  1283                           ; 4 bytes @ 0xD
  1284  002D                     	ds	4
  1285  0031                     ___fldiv@sign:	
  1286                           
  1287                           ; 1 bytes @ 0x11
  1288  0031                     	ds	1
  1289  0032                     ___fldiv@new_exp:	
  1290                           
  1291                           ; 2 bytes @ 0x12
  1292  0032                     	ds	2
  1293  0034                     ___fldiv@grs:	
  1294                           
  1295                           ; 4 bytes @ 0x14
  1296  0034                     	ds	4
  1297  0038                     ___fldiv@bexp:	
  1298                           
  1299                           ; 1 bytes @ 0x18
  1300  0038                     	ds	1
  1301  0039                     ___fldiv@aexp:	
  1302                           
  1303                           ; 1 bytes @ 0x19
  1304  0039                     	ds	1
  1305  003A                     ??_main:	
  1306                           
  1307                           ; 1 bytes @ 0x1A
  1308  003A                     	ds	6
  1309  0040                     main@tune:	
  1310                           
  1311                           ; 2 bytes @ 0x20
  1312  0040                     	ds	2
  1313  0042                     _main$734:	
  1314                           
  1315                           ; 4 bytes @ 0x22
  1316  0042                     	ds	4
  1317  0046                     main@t:	
  1318                           
  1319                           ; 2 bytes @ 0x26
  1320  0046                     	ds	2
  1321  0048                     main@duration:	
  1322                           
  1323                           ; 2 bytes @ 0x28
  1324  0048                     	ds	2
  1325  004A                     main@T:	
  1326                           
  1327                           ; 2 bytes @ 0x2A
  1328  004A                     	ds	2
  1329  004C                     main@M:	
  1330                           
  1331                           ; 2 bytes @ 0x2C
  1332  004C                     	ds	2
  1333  004E                     main@p:	
  1334                           
  1335                           ; 2 bytes @ 0x2E
  1336  004E                     	ds	2
  1337  0050                     main@i:	
  1338                           
  1339                           ; 2 bytes @ 0x30
  1340  0050                     	ds	2
  1341  0052                     main@tone:	
  1342                           
  1343                           ; 2 bytes @ 0x32
  1344  0052                     	ds	2
  1345  0054                     main@audio:	
  1346                           
  1347                           ; 2 bytes @ 0x34
  1348  0054                     	ds	2
  1349                           
  1350                           	psect	maintext
  1351  03B4                     __pmaintext:	
  1352 ;;
  1353 ;;Main: autosize = 0, tempsize = 4, incstack = 0, save=0
  1354 ;;
  1355 ;; *************** function _main *****************
  1356 ;; Defined at:
  1357 ;;		line 250 in file "main.c"
  1358 ;; Parameters:    Size  Location     Type
  1359 ;;		None
  1360 ;; Auto vars:     Size  Location     Type
  1361 ;;  audio           2   52[BANK0 ] unsigned int 
  1362 ;;  tone            2   50[BANK0 ] unsigned int 
  1363 ;;  p               2   46[BANK0 ] PTR const unsigned char 
  1364 ;;		 -> lzttdmg(543), 
  1365 ;;  M               2   44[BANK0 ] unsigned int 
  1366 ;;  T               2   42[BANK0 ] unsigned int 
  1367 ;;  duration        2   40[BANK0 ] unsigned int 
  1368 ;;  tune            2   32[BANK0 ] unsigned int 
  1369 ;;  i               2   48[BANK0 ] unsigned int 
  1370 ;;  t               2   38[BANK0 ] unsigned int 
  1371 ;;  n               2    0        unsigned int 
  1372 ;; Return value:  Size  Location     Type
  1373 ;;                  1    wreg      void 
  1374 ;; Registers used:
  1375 ;;		wreg, fsr0l, fsr0h, status,2, status,0, pclath, cstack
  1376 ;; Tracked objects:
  1377 ;;		On entry : B1F/0
  1378 ;;		On exit  : 0/0
  1379 ;;		Unchanged: 0/0
  1380 ;; Data sizes:     COMMON   BANK0   BANK1
  1381 ;;      Params:         0       0       0
  1382 ;;      Locals:         0      24       0
  1383 ;;      Temps:          0       4       0
  1384 ;;      Totals:         0      28       0
  1385 ;;Total ram usage:       28 bytes
  1386 ;; Hardware stack levels required when called:    3
  1387 ;; This function calls:
  1388 ;;		_Beep_Init
  1389 ;;		_PORT_Init
  1390 ;;		_TMR1_Init
  1391 ;;		___aldiv
  1392 ;;		___awdiv
  1393 ;;		___fldiv
  1394 ;;		___xxtofl
  1395 ;;		_delay
  1396 ;; This function is called by:
  1397 ;;		Startup code after reset
  1398 ;; This function uses a non-reentrant model
  1399 ;;
  1400                           
  1401                           
  1402                           ;psect for function _main
  1403  03B4                     _main:	
  1404                           
  1405                           ;main.c: 252:     OSCCON = 0X68;
  1406                           
  1407                           ;incstack = 0
  1408                           ; Regs used in _main: [wreg-fsr0h+status,2+status,0+pclath+cstack]
  1409  03B4  3068               	movlw	104
  1410  03B5  0021               	movlb	1	; select bank1
  1411  03B6  0099               	movwf	25	;volatile
  1412                           
  1413                           ;main.c: 254:     unsigned int i = 0;
  1414  03B7  0020               	movlb	0	; select bank0
  1415  03B8  01D0               	clrf	main@i
  1416  03B9  01D1               	clrf	main@i+1
  1417                           
  1418                           ;main.c: 255:     unsigned int t = 0;
  1419  03BA  01C6               	clrf	main@t
  1420  03BB  01C7               	clrf	main@t+1
  1421                           
  1422                           ;main.c: 258:     PORT_Init();
  1423  03BC  272A               	fcall	_PORT_Init
  1424                           
  1425                           ;main.c: 260:     Beep_Init();
  1426  03BD  2726               	fcall	_Beep_Init
  1427  03BE  2BC9               	goto	l1457
  1428  03BF                     l1469:	
  1429  03BF  0852               	movf	main@tone,w
  1430  03C0  0453               	iorwf	main@tone+1,w
  1431  03C1  1D03               	btfss	3,2
  1432  03C2  2C3B               	goto	l1475
  1433  03C3  0848               	movf	main@duration,w
  1434  03C4  0449               	iorwf	main@duration+1,w
  1435  03C5  1D03               	btfss	3,2
  1436  03C6  2C3B               	goto	l1475
  1437                           
  1438                           ;main.c: 276:             i = 0;
  1439  03C7  01D0               	clrf	main@i
  1440  03C8  01D1               	clrf	main@i+1
  1441  03C9                     l1457:	
  1442                           ;main.c: 277:         }else {
  1443                           
  1444  03C9  0020               	movlb	0	; select bank0
  1445  03CA  01CC               	clrf	main@M
  1446  03CB  01CD               	clrf	main@M+1
  1447  03CC  01CA               	clrf	main@T
  1448  03CD  01CB               	clrf	main@T+1
  1449  03CE  01C0               	clrf	main@tune
  1450  03CF  01C1               	clrf	main@tune+1
  1451  03D0  01C8               	clrf	main@duration
  1452  03D1  01C9               	clrf	main@duration+1
  1453  03D2  01D2               	clrf	main@tone
  1454  03D3  01D3               	clrf	main@tone+1
  1455                           
  1456                           ;main.c: 267:         unsigned char const *p = lzttdmg;
  1457  03D4  301C               	movlw	low (_lzttdmg| (0+32768))
  1458  03D5  00CE               	movwf	main@p
  1459  03D6  3080               	movlw	high (_lzttdmg| (0+32768))
  1460  03D7  00CF               	movwf	main@p+1
  1461                           
  1462                           ;main.c: 269:         audio = p[i];
  1463  03D8  084E               	movf	main@p,w
  1464  03D9  0750               	addwf	main@i,w
  1465  03DA  0084               	movwf	4
  1466  03DB  084F               	movf	main@p+1,w
  1467  03DC  3D51               	addwfc	main@i+1,w
  1468  03DD  0085               	movwf	5
  1469  03DE  0800               	movf	0,w	;code access
  1470  03DF  00BA               	movwf	??_main
  1471  03E0  01BB               	clrf	??_main+1
  1472  03E1  083A               	movf	??_main,w
  1473  03E2  00D4               	movwf	main@audio
  1474  03E3  083B               	movf	??_main+1,w
  1475  03E4  00D5               	movwf	main@audio+1
  1476                           
  1477                           ;main.c: 270:         tone = p[i + 1];
  1478  03E5  0850               	movf	main@i,w
  1479  03E6  074E               	addwf	main@p,w
  1480  03E7  00BA               	movwf	??_main
  1481  03E8  0851               	movf	main@i+1,w
  1482  03E9  3D4F               	addwfc	main@p+1,w
  1483  03EA  00BB               	movwf	??_main+1
  1484  03EB  3001               	movlw	1
  1485  03EC  073A               	addwf	??_main,w
  1486  03ED  0084               	movwf	4
  1487  03EE  083B               	movf	??_main+1,w
  1488  03EF  1803               	skipnc
  1489  03F0  0A3B               	incf	??_main+1,w
  1490  03F1  0085               	movwf	5
  1491  03F2  0800               	movf	0,w	;code access
  1492  03F3  00BC               	movwf	??_main+2
  1493  03F4  01BD               	clrf	??_main+3
  1494  03F5  083C               	movf	??_main+2,w
  1495  03F6  00D2               	movwf	main@tone
  1496  03F7  083D               	movf	??_main+3,w
  1497  03F8  00D3               	movwf	main@tone+1
  1498                           
  1499                           ;main.c: 271:         duration = 16 / p[i + 2];
  1500  03F9  0850               	movf	main@i,w
  1501  03FA  074E               	addwf	main@p,w
  1502  03FB  00BA               	movwf	??_main
  1503  03FC  0851               	movf	main@i+1,w
  1504  03FD  3D4F               	addwfc	main@p+1,w
  1505  03FE  00BB               	movwf	??_main+1
  1506  03FF  3002               	movlw	2
  1507  0400  073A               	addwf	??_main,w
  1508  0401  0084               	movwf	4
  1509  0402  083B               	movf	??_main+1,w
  1510  0403  1803               	skipnc
  1511  0404  0A3B               	incf	??_main+1,w
  1512  0405  0085               	movwf	5
  1513  0406  0800               	movf	0,w	;code access
  1514  0407  00BC               	movwf	??_main+2
  1515  0408  01BD               	clrf	??_main+3
  1516  0409  083C               	movf	??_main+2,w
  1517  040A  00F0               	movwf	___awdiv@divisor
  1518  040B  083D               	movf	??_main+3,w
  1519  040C  00F1               	movwf	___awdiv@divisor+1
  1520  040D  3010               	movlw	16
  1521  040E  00F2               	movwf	___awdiv@dividend
  1522  040F  3000               	movlw	0
  1523  0410  00F3               	movwf	___awdiv@dividend+1
  1524  0411  2672               	fcall	___awdiv
  1525  0412  0871               	movf	?___awdiv+1,w
  1526  0413  00C9               	movwf	main@duration+1
  1527  0414  0870               	movf	?___awdiv,w
  1528  0415  00C8               	movwf	main@duration
  1529                           
  1530                           ;main.c: 273:         ds_temp = 1048.00 / (float)i;
  1531  0416  0850               	movf	main@i,w
  1532  0417  00F0               	movwf	___xxtofl@val
  1533  0418  0851               	movf	main@i+1,w
  1534  0419  00F1               	movwf	___xxtofl@val+1
  1535  041A  01F2               	clrf	___xxtofl@val+2
  1536  041B  01F3               	clrf	___xxtofl@val+3
  1537  041C  3000               	movlw	0
  1538  041D  24F9               	fcall	___xxtofl
  1539  041E  0873               	movf	?___xxtofl+3,w
  1540  041F  00A3               	movwf	___fldiv@a+3
  1541  0420  0872               	movf	?___xxtofl+2,w
  1542  0421  00A2               	movwf	___fldiv@a+2
  1543  0422  0871               	movf	?___xxtofl+1,w
  1544  0423  00A1               	movwf	___fldiv@a+1
  1545  0424  0870               	movf	?___xxtofl,w
  1546  0425  00A0               	movwf	___fldiv@a
  1547  0426  3044               	movlw	68
  1548  0427  00A7               	movwf	___fldiv@b+3
  1549  0428  3083               	movlw	131
  1550  0429  00A6               	movwf	___fldiv@b+2
  1551  042A  3000               	movlw	0
  1552  042B  00A5               	movwf	___fldiv@b+1
  1553  042C  3000               	movlw	0
  1554  042D  00A4               	movwf	___fldiv@b
  1555  042E  223B               	fcall	___fldiv
  1556  042F  0823               	movf	?___fldiv+3,w
  1557  0430  00D9               	movwf	_ds_temp+3
  1558  0431  0822               	movf	?___fldiv+2,w
  1559  0432  00D8               	movwf	_ds_temp+2
  1560  0433  0821               	movf	?___fldiv+1,w
  1561  0434  00D7               	movwf	_ds_temp+1
  1562  0435  0820               	movf	?___fldiv,w
  1563  0436  00D6               	movwf	_ds_temp
  1564                           
  1565                           ;main.c: 275:         if(audio == 0 && tone == 0 && duration == 0) {
  1566  0437  0854               	movf	main@audio,w
  1567  0438  0455               	iorwf	main@audio+1,w
  1568  0439  1903               	btfsc	3,2
  1569  043A  2BBF               	goto	l1469
  1570  043B                     l1475:	
  1571                           
  1572                           ;main.c: 278:             i = i + 3;
  1573  043B  0850               	movf	main@i,w
  1574  043C  3E03               	addlw	3
  1575  043D  00D0               	movwf	main@i
  1576  043E  3000               	movlw	0
  1577  043F  3D51               	addwfc	main@i+1,w
  1578  0440  00D1               	movwf	main@i+1
  1579                           
  1580                           ;main.c: 280:             if(audio == 0) {
  1581  0441  0854               	movf	main@audio,w
  1582  0442  0455               	iorwf	main@audio+1,w
  1583  0443  1D03               	btfss	3,2
  1584  0444  2C4E               	goto	l1483
  1585                           
  1586                           ;main.c: 281:                 TMR1IE = 0;
  1587  0445  0021               	movlb	1	; select bank1
  1588  0446  1011               	bcf	17,0	;volatile
  1589                           
  1590                           ;main.c: 282:                 GIE = 0;
  1591  0447  138B               	bcf	11,7	;volatile
  1592                           
  1593                           ;main.c: 283:                 t = 0;
  1594  0448  0020               	movlb	0	; select bank0
  1595  0449  01C6               	clrf	main@t
  1596  044A  01C7               	clrf	main@t+1
  1597                           
  1598                           ;main.c: 284:                 LATC3 = 0;
  1599  044B  0022               	movlb	2	; select bank2
  1600  044C  118E               	bcf	14,3	;volatile
  1601                           
  1602                           ;main.c: 285:             }else {
  1603  044D  2CF5               	goto	l1519
  1604  044E                     l1483:	
  1605                           
  1606                           ;main.c: 286:                 audio = audio - 1;
  1607  044E  0854               	movf	main@audio,w
  1608  044F  3EFF               	addlw	255
  1609  0450  00D4               	movwf	main@audio
  1610  0451  30FF               	movlw	255
  1611  0452  3D55               	addwfc	main@audio+1,w
  1612  0453  00D5               	movwf	main@audio+1
  1613                           
  1614                           ;main.c: 288:                 if(tone == 1){
  1615  0454  0352               	decf	main@tone,w
  1616  0455  0453               	iorwf	main@tone+1,w
  1617  0456  1D03               	btfss	3,2
  1618  0457  2C66               	goto	l1487
  1619                           
  1620                           ;main.c: 289:                     audio = note_ll[audio];
  1621  0458  0855               	movf	main@audio+1,w
  1622  0459  0085               	movwf	5
  1623  045A  0854               	movf	main@audio,w
  1624  045B  0084               	movwf	4
  1625  045C  3584               	lslf	4,f
  1626  045D  0D85               	rlf	5,f
  1627  045E  30FB               	movlw	low (_note_ll| (0+32768))
  1628  045F  0784               	addwf	4,f
  1629  0460  3086               	movlw	high (_note_ll| (0+32768))
  1630  0461  3D85               	addwfc	5,f
  1631  0462  3F00               	moviw [0]fsr0
  1632  0463  00D4               	movwf	main@audio
  1633  0464  3F01               	moviw [1]fsr0
  1634  0465  2CB1               	goto	L4
  1635  0466                     l1487:	
  1636                           ;main.c: 290:                 }else if(tone == 2) {
  1637                           
  1638  0466  3002               	movlw	2
  1639  0467  0652               	xorwf	main@tone,w
  1640  0468  0453               	iorwf	main@tone+1,w
  1641  0469  1D03               	btfss	3,2
  1642  046A  2C79               	goto	l1491
  1643                           
  1644                           ;main.c: 291:                     audio = note_l[audio];
  1645  046B  0855               	movf	main@audio+1,w
  1646  046C  0085               	movwf	5
  1647  046D  0854               	movf	main@audio,w
  1648  046E  0084               	movwf	4
  1649  046F  3584               	lslf	4,f
  1650  0470  0D85               	rlf	5,f
  1651  0471  30ED               	movlw	low (_note_l| (0+32768))
  1652  0472  0784               	addwf	4,f
  1653  0473  3086               	movlw	high (_note_l| (0+32768))
  1654  0474  3D85               	addwfc	5,f
  1655  0475  3F00               	moviw [0]fsr0
  1656  0476  00D4               	movwf	main@audio
  1657  0477  3F01               	moviw [1]fsr0
  1658  0478  2CB1               	goto	L4
  1659  0479                     l1491:	
  1660                           ;main.c: 292:                 }else if(tone == 3) {
  1661                           
  1662  0479  3003               	movlw	3
  1663  047A  0652               	xorwf	main@tone,w
  1664  047B  0453               	iorwf	main@tone+1,w
  1665  047C  1D03               	btfss	3,2
  1666  047D  2C8C               	goto	l1495
  1667                           
  1668                           ;main.c: 293:                     audio = note_m[audio];
  1669  047E  0855               	movf	main@audio+1,w
  1670  047F  0085               	movwf	5
  1671  0480  0854               	movf	main@audio,w
  1672  0481  0084               	movwf	4
  1673  0482  3584               	lslf	4,f
  1674  0483  0D85               	rlf	5,f
  1675  0484  30DF               	movlw	low (_note_m| (0+32768))
  1676  0485  0784               	addwf	4,f
  1677  0486  3086               	movlw	high (_note_m| (0+32768))
  1678  0487  3D85               	addwfc	5,f
  1679  0488  3F00               	moviw [0]fsr0
  1680  0489  00D4               	movwf	main@audio
  1681  048A  3F01               	moviw [1]fsr0
  1682  048B  2CB1               	goto	L4
  1683  048C                     l1495:	
  1684                           ;main.c: 294:                 }else if(tone == 4) {
  1685                           
  1686  048C  3004               	movlw	4
  1687  048D  0652               	xorwf	main@tone,w
  1688  048E  0453               	iorwf	main@tone+1,w
  1689  048F  1D03               	btfss	3,2
  1690  0490  2C9F               	goto	l1499
  1691                           
  1692                           ;main.c: 295:                     audio = note_h[audio];
  1693  0491  0855               	movf	main@audio+1,w
  1694  0492  0085               	movwf	5
  1695  0493  0854               	movf	main@audio,w
  1696  0494  0084               	movwf	4
  1697  0495  3584               	lslf	4,f
  1698  0496  0D85               	rlf	5,f
  1699  0497  30D1               	movlw	low (_note_h| (0+32768))
  1700  0498  0784               	addwf	4,f
  1701  0499  3086               	movlw	high (_note_h| (0+32768))
  1702  049A  3D85               	addwfc	5,f
  1703  049B  3F00               	moviw [0]fsr0
  1704  049C  00D4               	movwf	main@audio
  1705  049D  3F01               	moviw [1]fsr0
  1706  049E  2CB1               	goto	L4
  1707  049F                     l1499:	
  1708                           ;main.c: 296:                 }else if(tone == 5) {
  1709                           
  1710  049F  3005               	movlw	5
  1711  04A0  0652               	xorwf	main@tone,w
  1712  04A1  0453               	iorwf	main@tone+1,w
  1713  04A2  1D03               	btfss	3,2
  1714  04A3  2CB2               	goto	l1503
  1715                           
  1716                           ;main.c: 297:                     audio = note_hh[audio];
  1717  04A4  0855               	movf	main@audio+1,w
  1718  04A5  0085               	movwf	5
  1719  04A6  0854               	movf	main@audio,w
  1720  04A7  0084               	movwf	4
  1721  04A8  3584               	lslf	4,f
  1722  04A9  0D85               	rlf	5,f
  1723  04AA  30C3               	movlw	low (_note_hh| (0+32768))
  1724  04AB  0784               	addwf	4,f
  1725  04AC  3086               	movlw	high (_note_hh| (0+32768))
  1726  04AD  3D85               	addwfc	5,f
  1727  04AE  3F00               	moviw [0]fsr0
  1728  04AF  00D4               	movwf	main@audio
  1729  04B0  3F01               	moviw [1]fsr0
  1730  04B1                     L4:	
  1731  04B1  00D5               	movwf	main@audio+1
  1732  04B2                     l1503:	
  1733                           
  1734                           ;main.c: 300:                 T = T + 1000000 / audio / 2;
  1735  04B2  0854               	movf	main@audio,w
  1736  04B3  00F0               	movwf	___aldiv@divisor
  1737  04B4  0855               	movf	main@audio+1,w
  1738  04B5  00F1               	movwf	___aldiv@divisor+1
  1739  04B6  01F2               	clrf	___aldiv@divisor+2
  1740  04B7  01F3               	clrf	___aldiv@divisor+3
  1741  04B8  3000               	movlw	0
  1742  04B9  00F7               	movwf	___aldiv@dividend+3
  1743  04BA  300F               	movlw	15
  1744  04BB  00F6               	movwf	___aldiv@dividend+2
  1745  04BC  3042               	movlw	66
  1746  04BD  00F5               	movwf	___aldiv@dividend+1
  1747  04BE  3040               	movlw	64
  1748  04BF  00F4               	movwf	___aldiv@dividend
  1749  04C0  258E               	fcall	___aldiv
  1750  04C1  0873               	movf	?___aldiv+3,w
  1751  04C2  00C5               	movwf	_main$734+3
  1752  04C3  0872               	movf	?___aldiv+2,w
  1753  04C4  00C4               	movwf	_main$734+2
  1754  04C5  0871               	movf	?___aldiv+1,w
  1755  04C6  00C3               	movwf	_main$734+1
  1756  04C7  0870               	movf	?___aldiv,w
  1757  04C8  00C2               	movwf	_main$734
  1758                           
  1759                           ;main.c: 300:                 T = T + 1000000 / audio / 2;
  1760  04C9  3000               	movlw	0
  1761  04CA  00F3               	movwf	___aldiv@divisor+3
  1762  04CB  3000               	movlw	0
  1763  04CC  00F2               	movwf	___aldiv@divisor+2
  1764  04CD  3000               	movlw	0
  1765  04CE  00F1               	movwf	___aldiv@divisor+1
  1766  04CF  3002               	movlw	2
  1767  04D0  00F0               	movwf	___aldiv@divisor
  1768  04D1  0845               	movf	_main$734+3,w
  1769  04D2  00F7               	movwf	___aldiv@dividend+3
  1770  04D3  0844               	movf	_main$734+2,w
  1771  04D4  00F6               	movwf	___aldiv@dividend+2
  1772  04D5  0843               	movf	_main$734+1,w
  1773  04D6  00F5               	movwf	___aldiv@dividend+1
  1774  04D7  0842               	movf	_main$734,w
  1775  04D8  00F4               	movwf	___aldiv@dividend
  1776  04D9  258E               	fcall	___aldiv
  1777  04DA  084A               	movf	main@T,w
  1778  04DB  0770               	addwf	?___aldiv,w
  1779  04DC  00CA               	movwf	main@T
  1780  04DD  084B               	movf	main@T+1,w
  1781  04DE  3D71               	addwfc	?___aldiv+1,w
  1782  04DF  00CB               	movwf	main@T+1
  1783                           
  1784                           ;main.c: 301:                 M = 0xFFFF - T * (4000000 / (1000000 * 4));
  1785  04E0  094A               	comf	main@T,w
  1786  04E1  00CC               	movwf	main@M
  1787  04E2  094B               	comf	main@T+1,w
  1788  04E3  00CD               	movwf	main@M+1
  1789                           
  1790                           ;main.c: 303:                 tmr1_h = M / 256;
  1791  04E4  084D               	movf	main@M+1,w
  1792  04E5  00BA               	movwf	??_main
  1793  04E6  083A               	movf	??_main,w
  1794  04E7  00DB               	movwf	_tmr1_h
  1795                           
  1796                           ;main.c: 304:                 tmr1_l = M % 256;
  1797  04E8  084C               	movf	main@M,w
  1798  04E9  00BA               	movwf	??_main
  1799  04EA  083A               	movf	??_main,w
  1800  04EB  00DA               	movwf	_tmr1_l
  1801                           
  1802                           ;main.c: 306:                 if(!t) {
  1803  04EC  0846               	movf	main@t,w
  1804  04ED  0447               	iorwf	main@t+1,w
  1805  04EE  1D03               	btfss	3,2
  1806  04EF  2CF5               	goto	l1519
  1807                           
  1808                           ;main.c: 307:                     TMR1_Init();
  1809  04F0  2709               	fcall	_TMR1_Init
  1810                           
  1811                           ;main.c: 308:                     t++;
  1812  04F1  3001               	movlw	1
  1813  04F2  07C6               	addwf	main@t,f
  1814  04F3  3000               	movlw	0
  1815  04F4  3DC7               	addwfc	main@t+1,f
  1816  04F5                     l1519:	
  1817                           
  1818                           ;main.c: 312:             delay(duration);
  1819  04F5  0020               	movlb	0	; select bank0
  1820  04F6  0848               	movf	main@duration,w
  1821  04F7  260F               	fcall	_delay
  1822  04F8  2BC9               	goto	l1457
  1823  04F9                     __end_of_main:	
  1824                           
  1825                           	psect	text1
  1826  060F                     __ptext1:	
  1827 ;; *************** function _delay *****************
  1828 ;; Defined at:
  1829 ;;		line 232 in file "main.c"
  1830 ;; Parameters:    Size  Location     Type
  1831 ;;  t               1    wreg     unsigned char 
  1832 ;; Auto vars:     Size  Location     Type
  1833 ;;  t               1    2[COMMON] unsigned char 
  1834 ;; Return value:  Size  Location     Type
  1835 ;;                  1    wreg      void 
  1836 ;; Registers used:
  1837 ;;		wreg, status,2, status,0
  1838 ;; Tracked objects:
  1839 ;;		On entry : 1F/0
  1840 ;;		On exit  : 0/0
  1841 ;;		Unchanged: 0/0
  1842 ;; Data sizes:     COMMON   BANK0   BANK1
  1843 ;;      Params:         0       0       0
  1844 ;;      Locals:         1       0       0
  1845 ;;      Temps:          2       0       0
  1846 ;;      Totals:         3       0       0
  1847 ;;Total ram usage:        3 bytes
  1848 ;; Hardware stack levels used:    1
  1849 ;; Hardware stack levels required when called:    1
  1850 ;; This function calls:
  1851 ;;		Nothing
  1852 ;; This function is called by:
  1853 ;;		_main
  1854 ;; This function uses a non-reentrant model
  1855 ;;
  1856                           
  1857                           
  1858                           ;psect for function _delay
  1859  060F                     _delay:	
  1860                           
  1861                           ;incstack = 0
  1862                           ; Regs used in _delay: [wreg+status,2+status,0]
  1863                           ;delay@t stored from wreg
  1864  060F  00F2               	movwf	delay@t
  1865                           
  1866                           ;main.c: 233:     if(t == 1) {
  1867  0610  0372               	decf	delay@t,w
  1868  0611  1D03               	btfss	3,2
  1869  0612  2E1F               	goto	l1149
  1870                           
  1871                           ;main.c: 234:         _delay((unsigned long)((208)*(4000000/4000.0)));
  1872  0613  3002               	movlw	2
  1873  0614  00F1               	movwf	??_delay+1
  1874  0615  300F               	movlw	15
  1875  0616  00F0               	movwf	??_delay
  1876  0617  301E               	movlw	30
  1877  0618                     u1617:	
  1878  0618  0B89               	decfsz	9,f
  1879  0619  2E18               	goto	u1617
  1880  061A  0BF0               	decfsz	??_delay,f
  1881  061B  2E18               	goto	u1617
  1882  061C  0BF1               	decfsz	??_delay+1,f
  1883  061D  2E18               	goto	u1617
  1884                           
  1885                           ;main.c: 235:     }else if(t == 2){
  1886  061E  0008               	return
  1887  061F                     l1149:	
  1888  061F  3002               	movlw	2
  1889  0620  0672               	xorwf	delay@t,w
  1890  0621  1D03               	btfss	3,2
  1891  0622  2E30               	goto	l1153
  1892                           
  1893                           ;main.c: 236:         _delay((unsigned long)((416)*(4000000/4000.0)));
  1894  0623  3003               	movlw	3
  1895  0624  00F1               	movwf	??_delay+1
  1896  0625  301D               	movlw	29
  1897  0626  00F0               	movwf	??_delay
  1898  0627  303E               	movlw	62
  1899  0628                     u1627:	
  1900  0628  0B89               	decfsz	9,f
  1901  0629  2E28               	goto	u1627
  1902  062A  0BF0               	decfsz	??_delay,f
  1903  062B  2E28               	goto	u1627
  1904  062C  0BF1               	decfsz	??_delay+1,f
  1905  062D  2E28               	goto	u1627
  1906  062E  3200               	nop2
  1907                           
  1908                           ;main.c: 237:     }else if(t == 3){
  1909  062F  0008               	return
  1910  0630                     l1153:	
  1911  0630  3003               	movlw	3
  1912  0631  0672               	xorwf	delay@t,w
  1913  0632  1D03               	btfss	3,2
  1914  0633  2E40               	goto	l1157
  1915                           
  1916                           ;main.c: 238:         _delay((unsigned long)((600)*(4000000/4000.0)));
  1917  0634  3004               	movlw	4
  1918  0635  00F1               	movwf	??_delay+1
  1919  0636  300C               	movlw	12
  1920  0637  00F0               	movwf	??_delay
  1921  0638  3034               	movlw	52
  1922  0639                     u1637:	
  1923  0639  0B89               	decfsz	9,f
  1924  063A  2E39               	goto	u1637
  1925  063B  0BF0               	decfsz	??_delay,f
  1926  063C  2E39               	goto	u1637
  1927  063D  0BF1               	decfsz	??_delay+1,f
  1928  063E  2E39               	goto	u1637
  1929                           
  1930                           ;main.c: 239:     }else if(t == 4){
  1931  063F  0008               	return
  1932  0640                     l1157:	
  1933  0640  3004               	movlw	4
  1934  0641  0672               	xorwf	delay@t,w
  1935  0642  1D03               	btfss	3,2
  1936  0643  2E51               	goto	l1161
  1937                           
  1938                           ;main.c: 240:         _delay((unsigned long)((833)*(4000000/4000.0)));
  1939  0644  3005               	movlw	5
  1940  0645  00F1               	movwf	??_delay+1
  1941  0646  303A               	movlw	58
  1942  0647  00F0               	movwf	??_delay
  1943  0648  30CC               	movlw	204
  1944  0649                     u1647:	
  1945  0649  0B89               	decfsz	9,f
  1946  064A  2E49               	goto	u1647
  1947  064B  0BF0               	decfsz	??_delay,f
  1948  064C  2E49               	goto	u1647
  1949  064D  0BF1               	decfsz	??_delay+1,f
  1950  064E  2E49               	goto	u1647
  1951  064F  3200               	nop2
  1952                           
  1953                           ;main.c: 241:     }else if(t == 5){
  1954  0650  0008               	return
  1955  0651                     l1161:	
  1956  0651  3005               	movlw	5
  1957  0652  0672               	xorwf	delay@t,w
  1958  0653  1D03               	btfss	3,2
  1959  0654  2E61               	goto	l1165
  1960                           
  1961                           ;main.c: 242:         _delay((unsigned long)((1000)*(4000000/4000.0)));
  1962  0655  3006               	movlw	6
  1963  0656  00F1               	movwf	??_delay+1
  1964  0657  3013               	movlw	19
  1965  0658  00F0               	movwf	??_delay
  1966  0659  30AE               	movlw	174
  1967  065A                     u1657:	
  1968  065A  0B89               	decfsz	9,f
  1969  065B  2E5A               	goto	u1657
  1970  065C  0BF0               	decfsz	??_delay,f
  1971  065D  2E5A               	goto	u1657
  1972  065E  0BF1               	decfsz	??_delay+1,f
  1973  065F  2E5A               	goto	u1657
  1974                           
  1975                           ;main.c: 243:     }else if(t == 6){
  1976  0660  0008               	return
  1977  0661                     l1165:	
  1978  0661  3006               	movlw	6
  1979  0662  0672               	xorwf	delay@t,w
  1980  0663  1D03               	btfss	3,2
  1981  0664  0008               	return
  1982                           
  1983                           ;main.c: 244:         _delay((unsigned long)((1200)*(4000000/4000.0)));
  1984  0665  3007               	movlw	7
  1985  0666  00F1               	movwf	??_delay+1
  1986  0667  3017               	movlw	23
  1987  0668  00F0               	movwf	??_delay
  1988  0669  306A               	movlw	106
  1989  066A                     u1667:	
  1990  066A  0B89               	decfsz	9,f
  1991  066B  2E6A               	goto	u1667
  1992  066C  0BF0               	decfsz	??_delay,f
  1993  066D  2E6A               	goto	u1667
  1994  066E  0BF1               	decfsz	??_delay+1,f
  1995  066F  2E6A               	goto	u1667
  1996  0670  3200               	nop2
  1997  0671  0008               	return
  1998  0672                     __end_of_delay:	
  1999                           
  2000                           	psect	text2
  2001  04F9                     __ptext2:	
  2002 ;; *************** function ___xxtofl *****************
  2003 ;; Defined at:
  2004 ;;		line 10 in file "C:\Program Files (x86)\Microchip\xc8\v2.10\pic\sources\c99\common\xxtofl.c"
  2005 ;; Parameters:    Size  Location     Type
  2006 ;;  sign            1    wreg     unsigned char 
  2007 ;;  val             4    0[COMMON] long 
  2008 ;; Auto vars:     Size  Location     Type
  2009 ;;  sign            1    8[COMMON] unsigned char 
  2010 ;;  arg             4   10[COMMON] unsigned long 
  2011 ;;  exp             1    9[COMMON] unsigned char 
  2012 ;; Return value:  Size  Location     Type
  2013 ;;                  4    0[COMMON] unsigned char 
  2014 ;; Registers used:
  2015 ;;		wreg, status,2, status,0
  2016 ;; Tracked objects:
  2017 ;;		On entry : 1F/0
  2018 ;;		On exit  : 1F/0
  2019 ;;		Unchanged: 1F/0
  2020 ;; Data sizes:     COMMON   BANK0   BANK1
  2021 ;;      Params:         4       0       0
  2022 ;;      Locals:         6       0       0
  2023 ;;      Temps:          4       0       0
  2024 ;;      Totals:        14       0       0
  2025 ;;Total ram usage:       14 bytes
  2026 ;; Hardware stack levels used:    1
  2027 ;; Hardware stack levels required when called:    1
  2028 ;; This function calls:
  2029 ;;		Nothing
  2030 ;; This function is called by:
  2031 ;;		_main
  2032 ;; This function uses a non-reentrant model
  2033 ;;
  2034                           
  2035                           
  2036                           ;psect for function ___xxtofl
  2037  04F9                     ___xxtofl:	
  2038                           
  2039                           ;incstack = 0
  2040                           ; Regs used in ___xxtofl: [wreg+status,2+status,0]
  2041                           ;___xxtofl@sign stored from wreg
  2042  04F9  00F8               	movwf	___xxtofl@sign
  2043  04FA  0878               	movf	___xxtofl@sign,w
  2044  04FB  1D03               	btfss	3,2
  2045  04FC  1FF3               	btfss	___xxtofl@val+3,7
  2046  04FD  2D0E               	goto	l1401
  2047  04FE  0970               	comf	___xxtofl@val,w
  2048  04FF  00FA               	movwf	___xxtofl@arg
  2049  0500  0971               	comf	___xxtofl@val+1,w
  2050  0501  00FB               	movwf	___xxtofl@arg+1
  2051  0502  0972               	comf	___xxtofl@val+2,w
  2052  0503  00FC               	movwf	___xxtofl@arg+2
  2053  0504  0973               	comf	___xxtofl@val+3,w
  2054  0505  00FD               	movwf	___xxtofl@arg+3
  2055  0506  0AFA               	incf	___xxtofl@arg,f
  2056  0507  1903               	skipnz
  2057  0508  0AFB               	incf	___xxtofl@arg+1,f
  2058  0509  1903               	skipnz
  2059  050A  0AFC               	incf	___xxtofl@arg+2,f
  2060  050B  1903               	skipnz
  2061  050C  0AFD               	incf	___xxtofl@arg+3,f
  2062  050D  2D16               	goto	l710
  2063  050E                     l1401:	
  2064  050E  0873               	movf	___xxtofl@val+3,w
  2065  050F  00FD               	movwf	___xxtofl@arg+3
  2066  0510  0872               	movf	___xxtofl@val+2,w
  2067  0511  00FC               	movwf	___xxtofl@arg+2
  2068  0512  0871               	movf	___xxtofl@val+1,w
  2069  0513  00FB               	movwf	___xxtofl@arg+1
  2070  0514  0870               	movf	___xxtofl@val,w
  2071  0515  00FA               	movwf	___xxtofl@arg
  2072  0516                     l710:	
  2073  0516  0873               	movf	___xxtofl@val+3,w
  2074  0517  0472               	iorwf	___xxtofl@val+2,w
  2075  0518  0471               	iorwf	___xxtofl@val+1,w
  2076  0519  0470               	iorwf	___xxtofl@val,w
  2077  051A  1D03               	skipz
  2078  051B  2D25               	goto	l1407
  2079  051C  3000               	movlw	0
  2080  051D  00F3               	movwf	?___xxtofl+3
  2081  051E  3000               	movlw	0
  2082  051F  00F2               	movwf	?___xxtofl+2
  2083  0520  3000               	movlw	0
  2084  0521  00F1               	movwf	?___xxtofl+1
  2085  0522  3000               	movlw	0
  2086  0523  00F0               	movwf	?___xxtofl
  2087  0524  0008               	return
  2088  0525                     l1407:	
  2089  0525  3096               	movlw	150
  2090  0526  00F4               	movwf	??___xxtofl
  2091  0527  0874               	movf	??___xxtofl,w
  2092  0528  00F9               	movwf	___xxtofl@exp
  2093  0529                     l1411:	
  2094  0529  30FE               	movlw	254
  2095  052A  057D               	andwf	___xxtofl@arg+3,w
  2096  052B  1903               	btfsc	3,2
  2097  052C  2D4C               	goto	l716
  2098  052D  3001               	movlw	1
  2099  052E  00F4               	movwf	??___xxtofl
  2100  052F  0874               	movf	??___xxtofl,w
  2101  0530  07F9               	addwf	___xxtofl@exp,f
  2102  0531  3001               	movlw	1
  2103  0532                     u1395:	
  2104  0532  36FD               	lsrf	___xxtofl@arg+3,f
  2105  0533  0CFC               	rrf	___xxtofl@arg+2,f
  2106  0534  0CFB               	rrf	___xxtofl@arg+1,f
  2107  0535  0CFA               	rrf	___xxtofl@arg,f
  2108  0536  0B89               	decfsz	9,f
  2109  0537  2D32               	goto	u1395
  2110  0538  2D29               	goto	l1411
  2111  0539                     l1413:	
  2112  0539  3001               	movlw	1
  2113  053A  00F4               	movwf	??___xxtofl
  2114  053B  0874               	movf	??___xxtofl,w
  2115  053C  07F9               	addwf	___xxtofl@exp,f
  2116  053D  3001               	movlw	1
  2117  053E  07FA               	addwf	___xxtofl@arg,f
  2118  053F  3000               	movlw	0
  2119  0540  3DFB               	addwfc	___xxtofl@arg+1,f
  2120  0541  3000               	movlw	0
  2121  0542  3DFC               	addwfc	___xxtofl@arg+2,f
  2122  0543  3000               	movlw	0
  2123  0544  3DFD               	addwfc	___xxtofl@arg+3,f
  2124  0545  3001               	movlw	1
  2125  0546                     u1415:	
  2126  0546  36FD               	lsrf	___xxtofl@arg+3,f
  2127  0547  0CFC               	rrf	___xxtofl@arg+2,f
  2128  0548  0CFB               	rrf	___xxtofl@arg+1,f
  2129  0549  0CFA               	rrf	___xxtofl@arg,f
  2130  054A  0B89               	decfsz	9,f
  2131  054B  2D46               	goto	u1415
  2132  054C                     l716:	
  2133  054C  30FF               	movlw	255
  2134  054D  057D               	andwf	___xxtofl@arg+3,w
  2135  054E  1903               	btfsc	3,2
  2136  054F  2D5E               	goto	l1421
  2137  0550  2D39               	goto	l1413
  2138  0551                     l1423:	
  2139  0551  3002               	movlw	2
  2140  0552  0279               	subwf	___xxtofl@exp,w
  2141  0553  1C03               	btfss	3,0
  2142  0554  2D60               	goto	l723
  2143  0555  3001               	movlw	1
  2144  0556  02F9               	subwf	___xxtofl@exp,f
  2145  0557  3001               	movlw	1
  2146  0558                     u1435:	
  2147  0558  35FA               	lslf	___xxtofl@arg,f
  2148  0559  0DFB               	rlf	___xxtofl@arg+1,f
  2149  055A  0DFC               	rlf	___xxtofl@arg+2,f
  2150  055B  0DFD               	rlf	___xxtofl@arg+3,f
  2151  055C  0B89               	decfsz	9,f
  2152  055D  2D58               	goto	u1435
  2153  055E                     l1421:	
  2154  055E  1FFC               	btfss	___xxtofl@arg+2,7
  2155  055F  2D51               	goto	l1423
  2156  0560                     l723:	
  2157  0560  1879               	btfsc	___xxtofl@exp,0
  2158  0561  2D6A               	goto	l724
  2159  0562  30FF               	movlw	255
  2160  0563  05FA               	andwf	___xxtofl@arg,f
  2161  0564  30FF               	movlw	255
  2162  0565  05FB               	andwf	___xxtofl@arg+1,f
  2163  0566  307F               	movlw	127
  2164  0567  05FC               	andwf	___xxtofl@arg+2,f
  2165  0568  30FF               	movlw	255
  2166  0569  05FD               	andwf	___xxtofl@arg+3,f
  2167  056A                     l724:	
  2168  056A  1003               	clrc
  2169  056B  0CF9               	rrf	___xxtofl@exp,f
  2170  056C  0879               	movf	___xxtofl@exp,w
  2171  056D  00F4               	movwf	??___xxtofl
  2172  056E  01F5               	clrf	??___xxtofl+1
  2173  056F  01F6               	clrf	??___xxtofl+2
  2174  0570  01F7               	clrf	??___xxtofl+3
  2175  0571  3018               	movlw	24
  2176  0572                     u1475:	
  2177  0572  35F4               	lslf	??___xxtofl,f
  2178  0573  0DF5               	rlf	??___xxtofl+1,f
  2179  0574  0DF6               	rlf	??___xxtofl+2,f
  2180  0575  0DF7               	rlf	??___xxtofl+3,f
  2181  0576  0B89               	decfsz	9,f
  2182  0577  2D72               	goto	u1475
  2183  0578  0874               	movf	??___xxtofl,w
  2184  0579  04FA               	iorwf	___xxtofl@arg,f
  2185  057A  0875               	movf	??___xxtofl+1,w
  2186  057B  04FB               	iorwf	___xxtofl@arg+1,f
  2187  057C  0876               	movf	??___xxtofl+2,w
  2188  057D  04FC               	iorwf	___xxtofl@arg+2,f
  2189  057E  0877               	movf	??___xxtofl+3,w
  2190  057F  04FD               	iorwf	___xxtofl@arg+3,f
  2191  0580  0878               	movf	___xxtofl@sign,w
  2192  0581  1D03               	btfss	3,2
  2193  0582  1FF3               	btfss	___xxtofl@val+3,7
  2194  0583  2D85               	goto	l1435
  2195  0584  17FD               	bsf	___xxtofl@arg+3,7
  2196  0585                     l1435:	
  2197  0585  087D               	movf	___xxtofl@arg+3,w
  2198  0586  00F3               	movwf	?___xxtofl+3
  2199  0587  087C               	movf	___xxtofl@arg+2,w
  2200  0588  00F2               	movwf	?___xxtofl+2
  2201  0589  087B               	movf	___xxtofl@arg+1,w
  2202  058A  00F1               	movwf	?___xxtofl+1
  2203  058B  087A               	movf	___xxtofl@arg,w
  2204  058C  00F0               	movwf	?___xxtofl
  2205  058D  0008               	return
  2206  058E                     __end_of___xxtofl:	
  2207                           
  2208                           	psect	text3
  2209  023B                     __ptext3:	
  2210 ;; *************** function ___fldiv *****************
  2211 ;; Defined at:
  2212 ;;		line 8 in file "C:\Program Files (x86)\Microchip\xc8\v2.10\pic\sources\c99\common\sprcdiv.c"
  2213 ;; Parameters:    Size  Location     Type
  2214 ;;  a               4    0[BANK0 ] unsigned char 
  2215 ;;  b               4    4[BANK0 ] unsigned char 
  2216 ;; Auto vars:     Size  Location     Type
  2217 ;;  grs             4   20[BANK0 ] unsigned long 
  2218 ;;  rem             4   13[BANK0 ] unsigned long 
  2219 ;;  new_exp         2   18[BANK0 ] int 
  2220 ;;  aexp            1   25[BANK0 ] unsigned char 
  2221 ;;  bexp            1   24[BANK0 ] unsigned char 
  2222 ;;  sign            1   17[BANK0 ] unsigned char 
  2223 ;; Return value:  Size  Location     Type
  2224 ;;                  4    0[BANK0 ] unsigned char 
  2225 ;; Registers used:
  2226 ;;		wreg, status,2, status,0
  2227 ;; Tracked objects:
  2228 ;;		On entry : 1F/0
  2229 ;;		On exit  : 1F/0
  2230 ;;		Unchanged: 0/0
  2231 ;; Data sizes:     COMMON   BANK0   BANK1
  2232 ;;      Params:         0       8       0
  2233 ;;      Locals:         0      13       0
  2234 ;;      Temps:          0       5       0
  2235 ;;      Totals:         0      26       0
  2236 ;;Total ram usage:       26 bytes
  2237 ;; Hardware stack levels used:    1
  2238 ;; Hardware stack levels required when called:    1
  2239 ;; This function calls:
  2240 ;;		Nothing
  2241 ;; This function is called by:
  2242 ;;		_main
  2243 ;; This function uses a non-reentrant model
  2244 ;;
  2245                           
  2246                           
  2247                           ;psect for function ___fldiv
  2248  023B                     ___fldiv:	
  2249                           
  2250                           ;incstack = 0
  2251                           ; Regs used in ___fldiv: [wreg+status,2+status,0]
  2252  023B  0827               	movf	___fldiv@b+3,w
  2253  023C  3980               	andlw	128
  2254  023D  00A8               	movwf	??___fldiv
  2255  023E  0828               	movf	??___fldiv,w
  2256  023F  00B1               	movwf	___fldiv@sign
  2257  0240  3527               	lslf	___fldiv@b+3,w
  2258  0241  00A8               	movwf	??___fldiv
  2259  0242  0828               	movf	??___fldiv,w
  2260  0243  00B8               	movwf	___fldiv@bexp
  2261  0244  1BA6               	btfsc	___fldiv@b+2,7
  2262  0245  1438               	bsf	___fldiv@bexp,0
  2263  0246  0838               	movf	___fldiv@bexp,w
  2264  0247  1903               	btfsc	3,2
  2265  0248  2A57               	goto	l1273
  2266  0249  0A38               	incf	___fldiv@bexp,w
  2267  024A  1D03               	btfss	3,2
  2268  024B  2A54               	goto	l1269
  2269  024C  3000               	movlw	0
  2270  024D  00A7               	movwf	___fldiv@b+3
  2271  024E  3000               	movlw	0
  2272  024F  00A6               	movwf	___fldiv@b+2
  2273  0250  3000               	movlw	0
  2274  0251  00A5               	movwf	___fldiv@b+1
  2275  0252  3000               	movlw	0
  2276  0253  00A4               	movwf	___fldiv@b
  2277  0254                     l1269:	
  2278  0254  17A6               	bsf	___fldiv@b+2,7
  2279  0255  01A7               	clrf	___fldiv@b+3
  2280  0256  2A5F               	goto	l1275
  2281  0257                     l1273:	
  2282  0257  3000               	movlw	0
  2283  0258  00A7               	movwf	___fldiv@b+3
  2284  0259  3000               	movlw	0
  2285  025A  00A6               	movwf	___fldiv@b+2
  2286  025B  3000               	movlw	0
  2287  025C  00A5               	movwf	___fldiv@b+1
  2288  025D  3000               	movlw	0
  2289  025E  00A4               	movwf	___fldiv@b
  2290  025F                     l1275:	
  2291  025F  0823               	movf	___fldiv@a+3,w
  2292  0260  3980               	andlw	128
  2293  0261  00A8               	movwf	??___fldiv
  2294  0262  0828               	movf	??___fldiv,w
  2295  0263  06B1               	xorwf	___fldiv@sign,f
  2296  0264  3523               	lslf	___fldiv@a+3,w
  2297  0265  00A8               	movwf	??___fldiv
  2298  0266  0828               	movf	??___fldiv,w
  2299  0267  00B9               	movwf	___fldiv@aexp
  2300  0268  1BA2               	btfsc	___fldiv@a+2,7
  2301  0269  1439               	bsf	___fldiv@aexp,0
  2302  026A  0839               	movf	___fldiv@aexp,w
  2303  026B  1903               	btfsc	3,2
  2304  026C  2A7B               	goto	l1293
  2305  026D  0A39               	incf	___fldiv@aexp,w
  2306  026E  1D03               	btfss	3,2
  2307  026F  2A78               	goto	l1289
  2308  0270  3000               	movlw	0
  2309  0271  00A3               	movwf	___fldiv@a+3
  2310  0272  3000               	movlw	0
  2311  0273  00A2               	movwf	___fldiv@a+2
  2312  0274  3000               	movlw	0
  2313  0275  00A1               	movwf	___fldiv@a+1
  2314  0276  3000               	movlw	0
  2315  0277  00A0               	movwf	___fldiv@a
  2316  0278                     l1289:	
  2317  0278  17A2               	bsf	___fldiv@a+2,7
  2318  0279  01A3               	clrf	___fldiv@a+3
  2319  027A  2A83               	goto	l632
  2320  027B                     l1293:	
  2321  027B  3000               	movlw	0
  2322  027C  00A3               	movwf	___fldiv@a+3
  2323  027D  3000               	movlw	0
  2324  027E  00A2               	movwf	___fldiv@a+2
  2325  027F  3000               	movlw	0
  2326  0280  00A1               	movwf	___fldiv@a+1
  2327  0281  3000               	movlw	0
  2328  0282  00A0               	movwf	___fldiv@a
  2329  0283                     l632:	
  2330  0283  0823               	movf	___fldiv@a+3,w
  2331  0284  0422               	iorwf	___fldiv@a+2,w
  2332  0285  0421               	iorwf	___fldiv@a+1,w
  2333  0286  0420               	iorwf	___fldiv@a,w
  2334  0287  1D03               	skipz
  2335  0288  2AA2               	goto	l1303
  2336  0289  3000               	movlw	0
  2337  028A  00A7               	movwf	___fldiv@b+3
  2338  028B  3000               	movlw	0
  2339  028C  00A6               	movwf	___fldiv@b+2
  2340  028D  3000               	movlw	0
  2341  028E  00A5               	movwf	___fldiv@b+1
  2342  028F  3000               	movlw	0
  2343  0290  00A4               	movwf	___fldiv@b
  2344  0291  3080               	movlw	128
  2345  0292  04A6               	iorwf	___fldiv@b+2,f
  2346  0293  307F               	movlw	127
  2347  0294  04A7               	iorwf	___fldiv@b+3,f
  2348  0295                     L5:	
  2349  0295  0831               	movf	___fldiv@sign,w
  2350  0296  00A8               	movwf	??___fldiv
  2351  0297  0828               	movf	??___fldiv,w
  2352  0298  04A7               	iorwf	___fldiv@b+3,f
  2353  0299  0827               	movf	___fldiv@b+3,w
  2354  029A  00A3               	movwf	?___fldiv+3
  2355  029B  0826               	movf	___fldiv@b+2,w
  2356  029C  00A2               	movwf	?___fldiv+2
  2357  029D  0825               	movf	___fldiv@b+1,w
  2358  029E  00A1               	movwf	?___fldiv+1
  2359  029F  0824               	movf	___fldiv@b,w
  2360  02A0  00A0               	movwf	?___fldiv
  2361  02A1  0008               	return
  2362  02A2                     l1303:	
  2363  02A2  0838               	movf	___fldiv@bexp,w
  2364  02A3  1D03               	btfss	3,2
  2365  02A4  2AAE               	goto	l1309
  2366  02A5  3000               	movlw	0
  2367  02A6  00A3               	movwf	?___fldiv+3
  2368  02A7  3000               	movlw	0
  2369  02A8  00A2               	movwf	?___fldiv+2
  2370  02A9  3000               	movlw	0
  2371  02AA  00A1               	movwf	?___fldiv+1
  2372  02AB  3000               	movlw	0
  2373  02AC  00A0               	movwf	?___fldiv
  2374  02AD  0008               	return
  2375  02AE                     l1309:	
  2376  02AE  0838               	movf	___fldiv@bexp,w
  2377  02AF  00A8               	movwf	??___fldiv
  2378  02B0  01A9               	clrf	??___fldiv+1
  2379  02B1  0829               	movf	??___fldiv+1,w
  2380  02B2  00AB               	movwf	??___fldiv+3
  2381  02B3  0839               	movf	___fldiv@aexp,w
  2382  02B4  0228               	subwf	??___fldiv,w
  2383  02B5  00AA               	movwf	??___fldiv+2
  2384  02B6  1C03               	skipc
  2385  02B7  03AB               	decf	??___fldiv+3,f
  2386  02B8  082A               	movf	??___fldiv+2,w
  2387  02B9  3E7F               	addlw	127
  2388  02BA  00B2               	movwf	___fldiv@new_exp
  2389  02BB  3000               	movlw	0
  2390  02BC  3D2B               	addwfc	??___fldiv+3,w
  2391  02BD  00B3               	movwf	___fldiv@new_exp+1
  2392  02BE  0827               	movf	___fldiv@b+3,w
  2393  02BF  00B0               	movwf	___fldiv@rem+3
  2394  02C0  0826               	movf	___fldiv@b+2,w
  2395  02C1  00AF               	movwf	___fldiv@rem+2
  2396  02C2  0825               	movf	___fldiv@b+1,w
  2397  02C3  00AE               	movwf	___fldiv@rem+1
  2398  02C4  0824               	movf	___fldiv@b,w
  2399  02C5  00AD               	movwf	___fldiv@rem
  2400  02C6  3000               	movlw	0
  2401  02C7  00A7               	movwf	___fldiv@b+3
  2402  02C8  3000               	movlw	0
  2403  02C9  00A6               	movwf	___fldiv@b+2
  2404  02CA  3000               	movlw	0
  2405  02CB  00A5               	movwf	___fldiv@b+1
  2406  02CC  3000               	movlw	0
  2407  02CD  00A4               	movwf	___fldiv@b
  2408  02CE  3000               	movlw	0
  2409  02CF  00B7               	movwf	___fldiv@grs+3
  2410  02D0  3000               	movlw	0
  2411  02D1  00B6               	movwf	___fldiv@grs+2
  2412  02D2  3000               	movlw	0
  2413  02D3  00B5               	movwf	___fldiv@grs+1
  2414  02D4  3000               	movlw	0
  2415  02D5  00B4               	movwf	___fldiv@grs
  2416  02D6  01B9               	clrf	___fldiv@aexp
  2417  02D7                     l1337:	
  2418  02D7  301A               	movlw	26
  2419  02D8  0239               	subwf	___fldiv@aexp,w
  2420  02D9  1803               	btfsc	3,0
  2421  02DA  2B13               	goto	l1339
  2422  02DB  0839               	movf	___fldiv@aexp,w
  2423  02DC  1903               	btfsc	3,2
  2424  02DD  2AF5               	goto	l1329
  2425  02DE  3001               	movlw	1
  2426  02DF                     u1165:	
  2427  02DF  35AD               	lslf	___fldiv@rem,f
  2428  02E0  0DAE               	rlf	___fldiv@rem+1,f
  2429  02E1  0DAF               	rlf	___fldiv@rem+2,f
  2430  02E2  0DB0               	rlf	___fldiv@rem+3,f
  2431  02E3  0B89               	decfsz	9,f
  2432  02E4  2ADF               	goto	u1165
  2433  02E5  3001               	movlw	1
  2434  02E6                     u1175:	
  2435  02E6  35A4               	lslf	___fldiv@b,f
  2436  02E7  0DA5               	rlf	___fldiv@b+1,f
  2437  02E8  0DA6               	rlf	___fldiv@b+2,f
  2438  02E9  0DA7               	rlf	___fldiv@b+3,f
  2439  02EA  0B89               	decfsz	9,f
  2440  02EB  2AE6               	goto	u1175
  2441  02EC  1BB7               	btfsc	___fldiv@grs+3,7
  2442  02ED  1424               	bsf	___fldiv@b,0
  2443  02EE  3001               	movlw	1
  2444  02EF                     u1195:	
  2445  02EF  35B4               	lslf	___fldiv@grs,f
  2446  02F0  0DB5               	rlf	___fldiv@grs+1,f
  2447  02F1  0DB6               	rlf	___fldiv@grs+2,f
  2448  02F2  0DB7               	rlf	___fldiv@grs+3,f
  2449  02F3  0B89               	decfsz	9,f
  2450  02F4  2AEF               	goto	u1195
  2451  02F5                     l1329:	
  2452  02F5  0823               	movf	___fldiv@a+3,w
  2453  02F6  0230               	subwf	___fldiv@rem+3,w
  2454  02F7  1D03               	skipz
  2455  02F8  2B03               	goto	u1205
  2456  02F9  0822               	movf	___fldiv@a+2,w
  2457  02FA  022F               	subwf	___fldiv@rem+2,w
  2458  02FB  1D03               	skipz
  2459  02FC  2B03               	goto	u1205
  2460  02FD  0821               	movf	___fldiv@a+1,w
  2461  02FE  022E               	subwf	___fldiv@rem+1,w
  2462  02FF  1D03               	skipz
  2463  0300  2B03               	goto	u1205
  2464  0301  0820               	movf	___fldiv@a,w
  2465  0302  022D               	subwf	___fldiv@rem,w
  2466  0303                     u1205:	
  2467  0303  1C03               	skipc
  2468  0304  2B0E               	goto	l1335
  2469  0305  1737               	bsf	___fldiv@grs+3,6
  2470  0306  0820               	movf	___fldiv@a,w
  2471  0307  02AD               	subwf	___fldiv@rem,f
  2472  0308  0821               	movf	___fldiv@a+1,w
  2473  0309  3BAE               	subwfb	___fldiv@rem+1,f
  2474  030A  0822               	movf	___fldiv@a+2,w
  2475  030B  3BAF               	subwfb	___fldiv@rem+2,f
  2476  030C  0823               	movf	___fldiv@a+3,w
  2477  030D  3BB0               	subwfb	___fldiv@rem+3,f
  2478  030E                     l1335:	
  2479  030E  3001               	movlw	1
  2480  030F  00A8               	movwf	??___fldiv
  2481  0310  0828               	movf	??___fldiv,w
  2482  0311  07B9               	addwf	___fldiv@aexp,f
  2483  0312  2AD7               	goto	l1337
  2484  0313                     l1339:	
  2485  0313  0830               	movf	___fldiv@rem+3,w
  2486  0314  042F               	iorwf	___fldiv@rem+2,w
  2487  0315  042E               	iorwf	___fldiv@rem+1,w
  2488  0316  042D               	iorwf	___fldiv@rem,w
  2489  0317  1D03               	btfss	3,2
  2490  0318  1434               	bsf	___fldiv@grs,0
  2491  0319                     l1353:	
  2492  0319  1BA6               	btfsc	___fldiv@b+2,7
  2493  031A  2B30               	goto	l1355
  2494  031B  3001               	movlw	1
  2495  031C                     u1235:	
  2496  031C  35A4               	lslf	___fldiv@b,f
  2497  031D  0DA5               	rlf	___fldiv@b+1,f
  2498  031E  0DA6               	rlf	___fldiv@b+2,f
  2499  031F  0DA7               	rlf	___fldiv@b+3,f
  2500  0320  0B89               	decfsz	9,f
  2501  0321  2B1C               	goto	u1235
  2502  0322  1BB7               	btfsc	___fldiv@grs+3,7
  2503  0323  1424               	bsf	___fldiv@b,0
  2504  0324  3001               	movlw	1
  2505  0325                     u1255:	
  2506  0325  35B4               	lslf	___fldiv@grs,f
  2507  0326  0DB5               	rlf	___fldiv@grs+1,f
  2508  0327  0DB6               	rlf	___fldiv@grs+2,f
  2509  0328  0DB7               	rlf	___fldiv@grs+3,f
  2510  0329  0B89               	decfsz	9,f
  2511  032A  2B25               	goto	u1255
  2512  032B  30FF               	movlw	255
  2513  032C  07B2               	addwf	___fldiv@new_exp,f
  2514  032D  30FF               	movlw	255
  2515  032E  3DB3               	addwfc	___fldiv@new_exp+1,f
  2516  032F  2B19               	goto	l1353
  2517  0330                     l1355:	
  2518  0330  01B9               	clrf	___fldiv@aexp
  2519  0331  1FB7               	btfss	___fldiv@grs+3,7
  2520  0332  2B49               	goto	l1365
  2521  0333  30FF               	movlw	255
  2522  0334  0534               	andwf	___fldiv@grs,w
  2523  0335  00A8               	movwf	??___fldiv
  2524  0336  30FF               	movlw	255
  2525  0337  0535               	andwf	___fldiv@grs+1,w
  2526  0338  00A9               	movwf	??___fldiv+1
  2527  0339  30FF               	movlw	255
  2528  033A  0536               	andwf	___fldiv@grs+2,w
  2529  033B  00AA               	movwf	??___fldiv+2
  2530  033C  307F               	movlw	127
  2531  033D  0537               	andwf	___fldiv@grs+3,w
  2532  033E  00AB               	movwf	??___fldiv+3
  2533  033F  082B               	movf	??___fldiv+3,w
  2534  0340  042A               	iorwf	??___fldiv+2,w
  2535  0341  0429               	iorwf	??___fldiv+1,w
  2536  0342  0428               	iorwf	??___fldiv,w
  2537  0343  1903               	skipnz
  2538  0344  1824               	btfsc	___fldiv@b,0
  2539  0345  2B47               	goto	l1361
  2540  0346  2B49               	goto	l1365
  2541  0347                     l1361:	
  2542  0347  01B9               	clrf	___fldiv@aexp
  2543  0348  0AB9               	incf	___fldiv@aexp,f
  2544  0349                     l1365:	
  2545  0349  0839               	movf	___fldiv@aexp,w
  2546  034A  1903               	btfsc	3,2
  2547  034B  2B72               	goto	l1375
  2548  034C  3001               	movlw	1
  2549  034D  07A4               	addwf	___fldiv@b,f
  2550  034E  3000               	movlw	0
  2551  034F  3DA5               	addwfc	___fldiv@b+1,f
  2552  0350  3000               	movlw	0
  2553  0351  3DA6               	addwfc	___fldiv@b+2,f
  2554  0352  3000               	movlw	0
  2555  0353  3DA7               	addwfc	___fldiv@b+3,f
  2556  0354  1C27               	btfss	___fldiv@b+3,0
  2557  0355  2B72               	goto	l1375
  2558  0356  0824               	movf	___fldiv@b,w
  2559  0357  00A8               	movwf	??___fldiv
  2560  0358  0825               	movf	___fldiv@b+1,w
  2561  0359  00A9               	movwf	??___fldiv+1
  2562  035A  0826               	movf	___fldiv@b+2,w
  2563  035B  00AA               	movwf	??___fldiv+2
  2564  035C  0827               	movf	___fldiv@b+3,w
  2565  035D  00AB               	movwf	??___fldiv+3
  2566  035E  3001               	movlw	1
  2567  035F  00AC               	movwf	??___fldiv+4
  2568  0360                     u1325:	
  2569  0360  37AB               	asrf	??___fldiv+3,f
  2570  0361  0CAA               	rrf	??___fldiv+2,f
  2571  0362  0CA9               	rrf	??___fldiv+1,f
  2572  0363  0CA8               	rrf	??___fldiv,f
  2573  0364  0BAC               	decfsz	??___fldiv+4,f
  2574  0365  2B60               	goto	u1325
  2575  0366  082B               	movf	??___fldiv+3,w
  2576  0367  00A7               	movwf	___fldiv@b+3
  2577  0368  082A               	movf	??___fldiv+2,w
  2578  0369  00A6               	movwf	___fldiv@b+2
  2579  036A  0829               	movf	??___fldiv+1,w
  2580  036B  00A5               	movwf	___fldiv@b+1
  2581  036C  0828               	movf	??___fldiv,w
  2582  036D  00A4               	movwf	___fldiv@b
  2583  036E  3001               	movlw	1
  2584  036F  07B2               	addwf	___fldiv@new_exp,f
  2585  0370  3000               	movlw	0
  2586  0371  3DB3               	addwfc	___fldiv@new_exp+1,f
  2587  0372                     l1375:	
  2588  0372  0833               	movf	___fldiv@new_exp+1,w
  2589  0373  3A80               	xorlw	128
  2590  0374  00A8               	movwf	??___fldiv
  2591  0375  3080               	movlw	128
  2592  0376  0228               	subwf	??___fldiv,w
  2593  0377  1D03               	skipz
  2594  0378  2B7B               	goto	u1335
  2595  0379  30FF               	movlw	255
  2596  037A  0232               	subwf	___fldiv@new_exp,w
  2597  037B                     u1335:	
  2598  037B  1C03               	skipc
  2599  037C  2B8A               	goto	l653
  2600  037D  30FF               	movlw	255
  2601  037E  0020               	movlb	0	; select bank0
  2602  037F  00B2               	movwf	___fldiv@new_exp
  2603  0380  3000               	movlw	0
  2604  0381  00B3               	movwf	___fldiv@new_exp+1
  2605  0382  3000               	movlw	0
  2606  0383  00A7               	movwf	___fldiv@b+3
  2607  0384  3000               	movlw	0
  2608  0385  00A6               	movwf	___fldiv@b+2
  2609  0386  3000               	movlw	0
  2610  0387  00A5               	movwf	___fldiv@b+1
  2611  0388  3000               	movlw	0
  2612  0389  00A4               	movwf	___fldiv@b
  2613  038A                     l653:	
  2614  038A  0020               	movlb	0	; select bank0
  2615  038B  0833               	movf	___fldiv@new_exp+1,w
  2616  038C  3A80               	xorlw	128
  2617  038D  00A8               	movwf	??___fldiv
  2618  038E  3080               	movlw	128
  2619  038F  0228               	subwf	??___fldiv,w
  2620  0390  1D03               	skipz
  2621  0391  2B94               	goto	u1345
  2622  0392  3001               	movlw	1
  2623  0393  0232               	subwf	___fldiv@new_exp,w
  2624  0394                     u1345:	
  2625  0394  1803               	skipnc
  2626  0395  2BA2               	goto	l654
  2627  0396  0020               	movlb	0	; select bank0
  2628  0397  01B2               	clrf	___fldiv@new_exp
  2629  0398  01B3               	clrf	___fldiv@new_exp+1
  2630  0399  3000               	movlw	0
  2631  039A  00A7               	movwf	___fldiv@b+3
  2632  039B  3000               	movlw	0
  2633  039C  00A6               	movwf	___fldiv@b+2
  2634  039D  3000               	movlw	0
  2635  039E  00A5               	movwf	___fldiv@b+1
  2636  039F  3000               	movlw	0
  2637  03A0  00A4               	movwf	___fldiv@b
  2638  03A1  01B1               	clrf	___fldiv@sign
  2639  03A2                     l654:	
  2640  03A2  0020               	movlb	0	; select bank0
  2641  03A3  0832               	movf	___fldiv@new_exp,w
  2642  03A4  00A8               	movwf	??___fldiv
  2643  03A5  0828               	movf	??___fldiv,w
  2644  03A6  00B8               	movwf	___fldiv@bexp
  2645  03A7  1C38               	btfss	___fldiv@bexp,0
  2646  03A8  2BAB               	goto	l1389
  2647  03A9  17A6               	bsf	___fldiv@b+2,7
  2648  03AA  2BAF               	goto	l656
  2649  03AB                     l1389:	
  2650  03AB  307F               	movlw	127
  2651  03AC  00A8               	movwf	??___fldiv
  2652  03AD  0828               	movf	??___fldiv,w
  2653  03AE  05A6               	andwf	___fldiv@b+2,f
  2654  03AF                     l656:	
  2655  03AF  3638               	lsrf	___fldiv@bexp,w
  2656  03B0  00A8               	movwf	??___fldiv
  2657  03B1  0828               	movf	??___fldiv,w
  2658  03B2  00A7               	movwf	___fldiv@b+3
  2659  03B3  2A95               	goto	L5
  2660  03B4                     __end_of___fldiv:	
  2661                           
  2662                           	psect	text4
  2663  0672                     __ptext4:	
  2664 ;; *************** function ___awdiv *****************
  2665 ;; Defined at:
  2666 ;;		line 5 in file "C:\Program Files (x86)\Microchip\xc8\v2.10\pic\sources\c99\common\awdiv.c"
  2667 ;; Parameters:    Size  Location     Type
  2668 ;;  divisor         2    0[COMMON] int 
  2669 ;;  dividend        2    2[COMMON] int 
  2670 ;; Auto vars:     Size  Location     Type
  2671 ;;  quotient        2    7[COMMON] int 
  2672 ;;  sign            1    6[COMMON] unsigned char 
  2673 ;;  counter         1    5[COMMON] unsigned char 
  2674 ;; Return value:  Size  Location     Type
  2675 ;;                  2    0[COMMON] int 
  2676 ;; Registers used:
  2677 ;;		wreg, status,2, status,0
  2678 ;; Tracked objects:
  2679 ;;		On entry : 1F/0
  2680 ;;		On exit  : 1F/0
  2681 ;;		Unchanged: 1F/0
  2682 ;; Data sizes:     COMMON   BANK0   BANK1
  2683 ;;      Params:         4       0       0
  2684 ;;      Locals:         4       0       0
  2685 ;;      Temps:          1       0       0
  2686 ;;      Totals:         9       0       0
  2687 ;;Total ram usage:        9 bytes
  2688 ;; Hardware stack levels used:    1
  2689 ;; Hardware stack levels required when called:    1
  2690 ;; This function calls:
  2691 ;;		Nothing
  2692 ;; This function is called by:
  2693 ;;		_main
  2694 ;; This function uses a non-reentrant model
  2695 ;;
  2696                           
  2697                           
  2698                           ;psect for function ___awdiv
  2699  0672                     ___awdiv:	
  2700                           
  2701                           ;incstack = 0
  2702                           ; Regs used in ___awdiv: [wreg+status,2+status,0]
  2703  0672  01F6               	clrf	___awdiv@sign
  2704  0673  1FF1               	btfss	___awdiv@divisor+1,7
  2705  0674  2E7C               	goto	l1219
  2706  0675  09F0               	comf	___awdiv@divisor,f
  2707  0676  09F1               	comf	___awdiv@divisor+1,f
  2708  0677  0AF0               	incf	___awdiv@divisor,f
  2709  0678  1903               	skipnz
  2710  0679  0AF1               	incf	___awdiv@divisor+1,f
  2711  067A  01F6               	clrf	___awdiv@sign
  2712  067B  0AF6               	incf	___awdiv@sign,f
  2713  067C                     l1219:	
  2714  067C  1FF3               	btfss	___awdiv@dividend+1,7
  2715  067D  2E87               	goto	l1225
  2716  067E  09F2               	comf	___awdiv@dividend,f
  2717  067F  09F3               	comf	___awdiv@dividend+1,f
  2718  0680  0AF2               	incf	___awdiv@dividend,f
  2719  0681  1903               	skipnz
  2720  0682  0AF3               	incf	___awdiv@dividend+1,f
  2721  0683  3001               	movlw	1
  2722  0684  00F4               	movwf	??___awdiv
  2723  0685  0874               	movf	??___awdiv,w
  2724  0686  06F6               	xorwf	___awdiv@sign,f
  2725  0687                     l1225:	
  2726  0687  01F7               	clrf	___awdiv@quotient
  2727  0688  01F8               	clrf	___awdiv@quotient+1
  2728  0689  0870               	movf	___awdiv@divisor,w
  2729  068A  0471               	iorwf	___awdiv@divisor+1,w
  2730  068B  1903               	btfsc	3,2
  2731  068C  2EB6               	goto	l1247
  2732  068D  01F5               	clrf	___awdiv@counter
  2733  068E  0AF5               	incf	___awdiv@counter,f
  2734  068F                     l1235:	
  2735  068F  1BF1               	btfsc	___awdiv@divisor+1,7
  2736  0690  2E9B               	goto	l1237
  2737  0691  3001               	movlw	1
  2738  0692                     u1005:	
  2739  0692  35F0               	lslf	___awdiv@divisor,f
  2740  0693  0DF1               	rlf	___awdiv@divisor+1,f
  2741  0694  0B89               	decfsz	9,f
  2742  0695  2E92               	goto	u1005
  2743  0696  3001               	movlw	1
  2744  0697  00F4               	movwf	??___awdiv
  2745  0698  0874               	movf	??___awdiv,w
  2746  0699  07F5               	addwf	___awdiv@counter,f
  2747  069A  2E8F               	goto	l1235
  2748  069B                     l1237:	
  2749  069B  3001               	movlw	1
  2750  069C                     u1025:	
  2751  069C  35F7               	lslf	___awdiv@quotient,f
  2752  069D  0DF8               	rlf	___awdiv@quotient+1,f
  2753  069E  0B89               	decfsz	9,f
  2754  069F  2E9C               	goto	u1025
  2755  06A0  0871               	movf	___awdiv@divisor+1,w
  2756  06A1  0273               	subwf	___awdiv@dividend+1,w
  2757  06A2  1D03               	skipz
  2758  06A3  2EA6               	goto	u1035
  2759  06A4  0870               	movf	___awdiv@divisor,w
  2760  06A5  0272               	subwf	___awdiv@dividend,w
  2761  06A6                     u1035:	
  2762  06A6  1C03               	skipc
  2763  06A7  2EAD               	goto	l1243
  2764  06A8  0870               	movf	___awdiv@divisor,w
  2765  06A9  02F2               	subwf	___awdiv@dividend,f
  2766  06AA  0871               	movf	___awdiv@divisor+1,w
  2767  06AB  3BF3               	subwfb	___awdiv@dividend+1,f
  2768  06AC  1477               	bsf	___awdiv@quotient,0
  2769  06AD                     l1243:	
  2770  06AD  3001               	movlw	1
  2771  06AE                     u1045:	
  2772  06AE  36F1               	lsrf	___awdiv@divisor+1,f
  2773  06AF  0CF0               	rrf	___awdiv@divisor,f
  2774  06B0  0B89               	decfsz	9,f
  2775  06B1  2EAE               	goto	u1045
  2776  06B2  3001               	movlw	1
  2777  06B3  02F5               	subwf	___awdiv@counter,f
  2778  06B4  1D03               	btfss	3,2
  2779  06B5  2E9B               	goto	l1237
  2780  06B6                     l1247:	
  2781  06B6  0876               	movf	___awdiv@sign,w
  2782  06B7  1903               	btfsc	3,2
  2783  06B8  2EBE               	goto	l1251
  2784  06B9  09F7               	comf	___awdiv@quotient,f
  2785  06BA  09F8               	comf	___awdiv@quotient+1,f
  2786  06BB  0AF7               	incf	___awdiv@quotient,f
  2787  06BC  1903               	skipnz
  2788  06BD  0AF8               	incf	___awdiv@quotient+1,f
  2789  06BE                     l1251:	
  2790  06BE  0878               	movf	___awdiv@quotient+1,w
  2791  06BF  00F1               	movwf	?___awdiv+1
  2792  06C0  0877               	movf	___awdiv@quotient,w
  2793  06C1  00F0               	movwf	?___awdiv
  2794  06C2  0008               	return
  2795  06C3                     __end_of___awdiv:	
  2796                           
  2797                           	psect	text5
  2798  058E                     __ptext5:	
  2799 ;; *************** function ___aldiv *****************
  2800 ;; Defined at:
  2801 ;;		line 5 in file "C:\Program Files (x86)\Microchip\xc8\v2.10\pic\sources\c99\common\aldiv.c"
  2802 ;; Parameters:    Size  Location     Type
  2803 ;;  divisor         4    0[COMMON] long 
  2804 ;;  dividend        4    4[COMMON] long 
  2805 ;; Auto vars:     Size  Location     Type
  2806 ;;  quotient        4    2[BANK0 ] long 
  2807 ;;  sign            1    1[BANK0 ] unsigned char 
  2808 ;;  counter         1    0[BANK0 ] unsigned char 
  2809 ;; Return value:  Size  Location     Type
  2810 ;;                  4    0[COMMON] long 
  2811 ;; Registers used:
  2812 ;;		wreg, status,2, status,0
  2813 ;; Tracked objects:
  2814 ;;		On entry : 1F/0
  2815 ;;		On exit  : 1F/0
  2816 ;;		Unchanged: 0/0
  2817 ;; Data sizes:     COMMON   BANK0   BANK1
  2818 ;;      Params:         8       0       0
  2819 ;;      Locals:         0       6       0
  2820 ;;      Temps:          1       0       0
  2821 ;;      Totals:         9       6       0
  2822 ;;Total ram usage:       15 bytes
  2823 ;; Hardware stack levels used:    1
  2824 ;; Hardware stack levels required when called:    1
  2825 ;; This function calls:
  2826 ;;		Nothing
  2827 ;; This function is called by:
  2828 ;;		_main
  2829 ;; This function uses a non-reentrant model
  2830 ;;
  2831                           
  2832                           
  2833                           ;psect for function ___aldiv
  2834  058E                     ___aldiv:	
  2835                           
  2836                           ;incstack = 0
  2837                           ; Regs used in ___aldiv: [wreg+status,2+status,0]
  2838  058E  01A1               	clrf	___aldiv@sign
  2839  058F  1FF3               	btfss	___aldiv@divisor+3,7
  2840  0590  2D9E               	goto	l340
  2841  0591  09F0               	comf	___aldiv@divisor,f
  2842  0592  09F1               	comf	___aldiv@divisor+1,f
  2843  0593  09F2               	comf	___aldiv@divisor+2,f
  2844  0594  09F3               	comf	___aldiv@divisor+3,f
  2845  0595  0AF0               	incf	___aldiv@divisor,f
  2846  0596  1903               	skipnz
  2847  0597  0AF1               	incf	___aldiv@divisor+1,f
  2848  0598  1903               	skipnz
  2849  0599  0AF2               	incf	___aldiv@divisor+2,f
  2850  059A  1903               	skipnz
  2851  059B  0AF3               	incf	___aldiv@divisor+3,f
  2852  059C  01A1               	clrf	___aldiv@sign
  2853  059D  0AA1               	incf	___aldiv@sign,f
  2854  059E                     l340:	
  2855  059E  1FF7               	btfss	___aldiv@dividend+3,7
  2856  059F  2DAF               	goto	l1181
  2857  05A0  09F4               	comf	___aldiv@dividend,f
  2858  05A1  09F5               	comf	___aldiv@dividend+1,f
  2859  05A2  09F6               	comf	___aldiv@dividend+2,f
  2860  05A3  09F7               	comf	___aldiv@dividend+3,f
  2861  05A4  0AF4               	incf	___aldiv@dividend,f
  2862  05A5  1903               	skipnz
  2863  05A6  0AF5               	incf	___aldiv@dividend+1,f
  2864  05A7  1903               	skipnz
  2865  05A8  0AF6               	incf	___aldiv@dividend+2,f
  2866  05A9  1903               	skipnz
  2867  05AA  0AF7               	incf	___aldiv@dividend+3,f
  2868  05AB  3001               	movlw	1
  2869  05AC  00F8               	movwf	??___aldiv
  2870  05AD  0878               	movf	??___aldiv,w
  2871  05AE  06A1               	xorwf	___aldiv@sign,f
  2872  05AF                     l1181:	
  2873  05AF  3000               	movlw	0
  2874  05B0  00A5               	movwf	___aldiv@quotient+3
  2875  05B1  3000               	movlw	0
  2876  05B2  00A4               	movwf	___aldiv@quotient+2
  2877  05B3  3000               	movlw	0
  2878  05B4  00A3               	movwf	___aldiv@quotient+1
  2879  05B5  3000               	movlw	0
  2880  05B6  00A2               	movwf	___aldiv@quotient
  2881  05B7  0873               	movf	___aldiv@divisor+3,w
  2882  05B8  0472               	iorwf	___aldiv@divisor+2,w
  2883  05B9  0471               	iorwf	___aldiv@divisor+1,w
  2884  05BA  0470               	iorwf	___aldiv@divisor,w
  2885  05BB  1903               	skipnz
  2886  05BC  2DF8               	goto	l1203
  2887  05BD  01A0               	clrf	___aldiv@counter
  2888  05BE  0AA0               	incf	___aldiv@counter,f
  2889  05BF                     l1189:	
  2890  05BF  1BF3               	btfsc	___aldiv@divisor+3,7
  2891  05C0  2DCD               	goto	l1191
  2892  05C1  3001               	movlw	1
  2893  05C2                     u905:	
  2894  05C2  35F0               	lslf	___aldiv@divisor,f
  2895  05C3  0DF1               	rlf	___aldiv@divisor+1,f
  2896  05C4  0DF2               	rlf	___aldiv@divisor+2,f
  2897  05C5  0DF3               	rlf	___aldiv@divisor+3,f
  2898  05C6  0B89               	decfsz	9,f
  2899  05C7  2DC2               	goto	u905
  2900  05C8  3001               	movlw	1
  2901  05C9  00F8               	movwf	??___aldiv
  2902  05CA  0878               	movf	??___aldiv,w
  2903  05CB  07A0               	addwf	___aldiv@counter,f
  2904  05CC  2DBF               	goto	l1189
  2905  05CD                     l1191:	
  2906  05CD  3001               	movlw	1
  2907  05CE                     u925:	
  2908  05CE  35A2               	lslf	___aldiv@quotient,f
  2909  05CF  0DA3               	rlf	___aldiv@quotient+1,f
  2910  05D0  0DA4               	rlf	___aldiv@quotient+2,f
  2911  05D1  0DA5               	rlf	___aldiv@quotient+3,f
  2912  05D2  0B89               	decfsz	9,f
  2913  05D3  2DCE               	goto	u925
  2914  05D4  0873               	movf	___aldiv@divisor+3,w
  2915  05D5  0277               	subwf	___aldiv@dividend+3,w
  2916  05D6  1D03               	skipz
  2917  05D7  2DE2               	goto	u935
  2918  05D8  0872               	movf	___aldiv@divisor+2,w
  2919  05D9  0276               	subwf	___aldiv@dividend+2,w
  2920  05DA  1D03               	skipz
  2921  05DB  2DE2               	goto	u935
  2922  05DC  0871               	movf	___aldiv@divisor+1,w
  2923  05DD  0275               	subwf	___aldiv@dividend+1,w
  2924  05DE  1D03               	skipz
  2925  05DF  2DE2               	goto	u935
  2926  05E0  0870               	movf	___aldiv@divisor,w
  2927  05E1  0274               	subwf	___aldiv@dividend,w
  2928  05E2                     u935:	
  2929  05E2  1C03               	skipc
  2930  05E3  2DED               	goto	l1199
  2931  05E4  0870               	movf	___aldiv@divisor,w
  2932  05E5  02F4               	subwf	___aldiv@dividend,f
  2933  05E6  0871               	movf	___aldiv@divisor+1,w
  2934  05E7  3BF5               	subwfb	___aldiv@dividend+1,f
  2935  05E8  0872               	movf	___aldiv@divisor+2,w
  2936  05E9  3BF6               	subwfb	___aldiv@dividend+2,f
  2937  05EA  0873               	movf	___aldiv@divisor+3,w
  2938  05EB  3BF7               	subwfb	___aldiv@dividend+3,f
  2939  05EC  1422               	bsf	___aldiv@quotient,0
  2940  05ED                     l1199:	
  2941  05ED  3001               	movlw	1
  2942  05EE                     u945:	
  2943  05EE  36F3               	lsrf	___aldiv@divisor+3,f
  2944  05EF  0CF2               	rrf	___aldiv@divisor+2,f
  2945  05F0  0CF1               	rrf	___aldiv@divisor+1,f
  2946  05F1  0CF0               	rrf	___aldiv@divisor,f
  2947  05F2  0B89               	decfsz	9,f
  2948  05F3  2DEE               	goto	u945
  2949  05F4  3001               	movlw	1
  2950  05F5  02A0               	subwf	___aldiv@counter,f
  2951  05F6  1D03               	btfss	3,2
  2952  05F7  2DCD               	goto	l1191
  2953  05F8                     l1203:	
  2954  05F8  0821               	movf	___aldiv@sign,w
  2955  05F9  1903               	btfsc	3,2
  2956  05FA  2E06               	goto	l1207
  2957  05FB  09A2               	comf	___aldiv@quotient,f
  2958  05FC  09A3               	comf	___aldiv@quotient+1,f
  2959  05FD  09A4               	comf	___aldiv@quotient+2,f
  2960  05FE  09A5               	comf	___aldiv@quotient+3,f
  2961  05FF  0AA2               	incf	___aldiv@quotient,f
  2962  0600  1903               	skipnz
  2963  0601  0AA3               	incf	___aldiv@quotient+1,f
  2964  0602  1903               	skipnz
  2965  0603  0AA4               	incf	___aldiv@quotient+2,f
  2966  0604  1903               	skipnz
  2967  0605  0AA5               	incf	___aldiv@quotient+3,f
  2968  0606                     l1207:	
  2969  0606  0825               	movf	___aldiv@quotient+3,w
  2970  0607  00F3               	movwf	?___aldiv+3
  2971  0608  0824               	movf	___aldiv@quotient+2,w
  2972  0609  00F2               	movwf	?___aldiv+2
  2973  060A  0823               	movf	___aldiv@quotient+1,w
  2974  060B  00F1               	movwf	?___aldiv+1
  2975  060C  0822               	movf	___aldiv@quotient,w
  2976  060D  00F0               	movwf	?___aldiv
  2977  060E  0008               	return
  2978  060F                     __end_of___aldiv:	
  2979                           
  2980                           	psect	text6
  2981  0709                     __ptext6:	
  2982 ;; *************** function _TMR1_Init *****************
  2983 ;; Defined at:
  2984 ;;		line 209 in file "main.c"
  2985 ;; Parameters:    Size  Location     Type
  2986 ;;		None
  2987 ;; Auto vars:     Size  Location     Type
  2988 ;;		None
  2989 ;; Return value:  Size  Location     Type
  2990 ;;                  1    wreg      void 
  2991 ;; Registers used:
  2992 ;;		wreg
  2993 ;; Tracked objects:
  2994 ;;		On entry : 1F/0
  2995 ;;		On exit  : 1F/0
  2996 ;;		Unchanged: 0/0
  2997 ;; Data sizes:     COMMON   BANK0   BANK1
  2998 ;;      Params:         0       0       0
  2999 ;;      Locals:         0       0       0
  3000 ;;      Temps:          0       0       0
  3001 ;;      Totals:         0       0       0
  3002 ;;Total ram usage:        0 bytes
  3003 ;; Hardware stack levels used:    1
  3004 ;; Hardware stack levels required when called:    1
  3005 ;; This function calls:
  3006 ;;		Nothing
  3007 ;; This function is called by:
  3008 ;;		_main
  3009 ;; This function uses a non-reentrant model
  3010 ;;
  3011                           
  3012                           
  3013                           ;psect for function _TMR1_Init
  3014  0709                     _TMR1_Init:	
  3015                           
  3016                           ;main.c: 210:     TMR1H = tmr1_h;
  3017                           
  3018                           ;incstack = 0
  3019                           ; Regs used in _TMR1_Init: [wreg]
  3020  0709  085B               	movf	_tmr1_h,w
  3021  070A  0097               	movwf	23	;volatile
  3022                           
  3023                           ;main.c: 211:     TMR1L = tmr1_l;
  3024  070B  085A               	movf	_tmr1_l,w
  3025  070C  0096               	movwf	22	;volatile
  3026                           
  3027                           ;main.c: 213:     TMR1ON = 1;
  3028  070D  1418               	bsf	24,0	;volatile
  3029                           
  3030                           ;main.c: 214:     TMR1IE = 1 ;
  3031  070E  0021               	movlb	1	; select bank1
  3032  070F  1411               	bsf	17,0	;volatile
  3033                           
  3034                           ;main.c: 215:     TMR1IF = 0 ;
  3035  0710  0020               	movlb	0	; select bank0
  3036  0711  1011               	bcf	17,0	;volatile
  3037                           
  3038                           ;main.c: 216:     PEIE = 1;
  3039  0712  170B               	bsf	11,6	;volatile
  3040                           
  3041                           ;main.c: 217:     GIE = 1;
  3042  0713  178B               	bsf	11,7	;volatile
  3043  0714  0008               	return
  3044  0715                     __end_of_TMR1_Init:	
  3045                           
  3046                           	psect	text7
  3047  072A                     __ptext7:	
  3048 ;; *************** function _PORT_Init *****************
  3049 ;; Defined at:
  3050 ;;		line 4 in file "../library/port.c"
  3051 ;; Parameters:    Size  Location     Type
  3052 ;;		None
  3053 ;; Auto vars:     Size  Location     Type
  3054 ;;		None
  3055 ;; Return value:  Size  Location     Type
  3056 ;;                  1    wreg      void 
  3057 ;; Registers used:
  3058 ;;		status,2, status,0, pclath, cstack
  3059 ;; Tracked objects:
  3060 ;;		On entry : B1F/0
  3061 ;;		On exit  : B1F/1
  3062 ;;		Unchanged: B00/0
  3063 ;; Data sizes:     COMMON   BANK0   BANK1
  3064 ;;      Params:         0       0       0
  3065 ;;      Locals:         0       0       0
  3066 ;;      Temps:          0       0       0
  3067 ;;      Totals:         0       0       0
  3068 ;;Total ram usage:        0 bytes
  3069 ;; Hardware stack levels used:    1
  3070 ;; Hardware stack levels required when called:    2
  3071 ;; This function calls:
  3072 ;;		_PORTA_Init
  3073 ;;		_PORTC_Init
  3074 ;; This function is called by:
  3075 ;;		_main
  3076 ;; This function uses a non-reentrant model
  3077 ;;
  3078                           
  3079                           
  3080                           ;psect for function _PORT_Init
  3081  072A                     _PORT_Init:	
  3082                           
  3083                           ;../library/port.c: 5:     PORTA_Init();
  3084                           
  3085                           ;incstack = 0
  3086                           ; Regs used in _PORT_Init: [status,2+status,0+pclath+cstack]
  3087  072A  271E               	fcall	_PORTA_Init
  3088                           
  3089                           ;../library/port.c: 6:     PORTC_Init();
  3090  072B  2715               	fcall	_PORTC_Init
  3091  072C  0008               	return
  3092  072D                     __end_of_PORT_Init:	
  3093                           
  3094                           	psect	text8
  3095  0715                     __ptext8:	
  3096 ;; *************** function _PORTC_Init *****************
  3097 ;; Defined at:
  3098 ;;		line 16 in file "../library/port.c"
  3099 ;; Parameters:    Size  Location     Type
  3100 ;;		None
  3101 ;; Auto vars:     Size  Location     Type
  3102 ;;		None
  3103 ;; Return value:  Size  Location     Type
  3104 ;;                  1    wreg      void 
  3105 ;; Registers used:
  3106 ;;		status,2
  3107 ;; Tracked objects:
  3108 ;;		On entry : B1F/1
  3109 ;;		On exit  : B1F/1
  3110 ;;		Unchanged: B00/0
  3111 ;; Data sizes:     COMMON   BANK0   BANK1
  3112 ;;      Params:         0       0       0
  3113 ;;      Locals:         0       0       0
  3114 ;;      Temps:          0       0       0
  3115 ;;      Totals:         0       0       0
  3116 ;;Total ram usage:        0 bytes
  3117 ;; Hardware stack levels used:    1
  3118 ;; Hardware stack levels required when called:    1
  3119 ;; This function calls:
  3120 ;;		Nothing
  3121 ;; This function is called by:
  3122 ;;		_PORT_Init
  3123 ;; This function uses a non-reentrant model
  3124 ;;
  3125                           
  3126                           
  3127                           ;psect for function _PORTC_Init
  3128  0715                     _PORTC_Init:	
  3129                           
  3130                           ;../library/port.c: 17:     PORTC = 0;
  3131                           
  3132                           ;incstack = 0
  3133                           ; Regs used in _PORTC_Init: [status,2]
  3134  0715  0020               	movlb	0	; select bank0
  3135  0716  018E               	clrf	14	;volatile
  3136                           
  3137                           ;../library/port.c: 18:     LATC = 0;
  3138  0717  0022               	movlb	2	; select bank2
  3139  0718  018E               	clrf	14	;volatile
  3140                           
  3141                           ;../library/port.c: 19:     ANSELC = 0;
  3142  0719  0023               	movlb	3	; select bank3
  3143  071A  018E               	clrf	14	;volatile
  3144                           
  3145                           ;../library/port.c: 20:     TRISC = 0;
  3146  071B  0021               	movlb	1	; select bank1
  3147  071C  018E               	clrf	14	;volatile
  3148  071D  0008               	return
  3149  071E                     __end_of_PORTC_Init:	
  3150                           
  3151                           	psect	text9
  3152  071E                     __ptext9:	
  3153 ;; *************** function _PORTA_Init *****************
  3154 ;; Defined at:
  3155 ;;		line 9 in file "../library/port.c"
  3156 ;; Parameters:    Size  Location     Type
  3157 ;;		None
  3158 ;; Auto vars:     Size  Location     Type
  3159 ;;		None
  3160 ;; Return value:  Size  Location     Type
  3161 ;;                  1    wreg      void 
  3162 ;; Registers used:
  3163 ;;		status,2
  3164 ;; Tracked objects:
  3165 ;;		On entry : B1F/0
  3166 ;;		On exit  : B1F/1
  3167 ;;		Unchanged: B00/0
  3168 ;; Data sizes:     COMMON   BANK0   BANK1
  3169 ;;      Params:         0       0       0
  3170 ;;      Locals:         0       0       0
  3171 ;;      Temps:          0       0       0
  3172 ;;      Totals:         0       0       0
  3173 ;;Total ram usage:        0 bytes
  3174 ;; Hardware stack levels used:    1
  3175 ;; Hardware stack levels required when called:    1
  3176 ;; This function calls:
  3177 ;;		Nothing
  3178 ;; This function is called by:
  3179 ;;		_PORT_Init
  3180 ;; This function uses a non-reentrant model
  3181 ;;
  3182                           
  3183                           
  3184                           ;psect for function _PORTA_Init
  3185  071E                     _PORTA_Init:	
  3186                           
  3187                           ;../library/port.c: 10:     PORTA = 0;
  3188                           
  3189                           ;incstack = 0
  3190                           ; Regs used in _PORTA_Init: [status,2]
  3191  071E  018C               	clrf	12	;volatile
  3192                           
  3193                           ;../library/port.c: 11:     LATA = 0;
  3194  071F  0022               	movlb	2	; select bank2
  3195  0720  018C               	clrf	12	;volatile
  3196                           
  3197                           ;../library/port.c: 12:     ANSELA = 0;
  3198  0721  0023               	movlb	3	; select bank3
  3199  0722  018C               	clrf	12	;volatile
  3200                           
  3201                           ;../library/port.c: 13:     TRISA = 0;
  3202  0723  0021               	movlb	1	; select bank1
  3203  0724  018C               	clrf	12	;volatile
  3204  0725  0008               	return
  3205  0726                     __end_of_PORTA_Init:	
  3206                           
  3207                           	psect	text10
  3208  0726                     __ptext10:	
  3209 ;; *************** function _Beep_Init *****************
  3210 ;; Defined at:
  3211 ;;		line 202 in file "main.c"
  3212 ;; Parameters:    Size  Location     Type
  3213 ;;		None
  3214 ;; Auto vars:     Size  Location     Type
  3215 ;;		None
  3216 ;; Return value:  Size  Location     Type
  3217 ;;                  1    wreg      void 
  3218 ;; Registers used:
  3219 ;;		None
  3220 ;; Tracked objects:
  3221 ;;		On entry : B1F/1
  3222 ;;		On exit  : B1F/2
  3223 ;;		Unchanged: B00/0
  3224 ;; Data sizes:     COMMON   BANK0   BANK1
  3225 ;;      Params:         0       0       0
  3226 ;;      Locals:         0       0       0
  3227 ;;      Temps:          0       0       0
  3228 ;;      Totals:         0       0       0
  3229 ;;Total ram usage:        0 bytes
  3230 ;; Hardware stack levels used:    1
  3231 ;; Hardware stack levels required when called:    1
  3232 ;; This function calls:
  3233 ;;		Nothing
  3234 ;; This function is called by:
  3235 ;;		_main
  3236 ;; This function uses a non-reentrant model
  3237 ;;
  3238                           
  3239                           
  3240                           ;psect for function _Beep_Init
  3241  0726                     _Beep_Init:	
  3242                           
  3243                           ;main.c: 203:     TRISC3 = 0;
  3244                           
  3245                           ;incstack = 0
  3246                           ; Regs used in _Beep_Init: []
  3247  0726  118E               	bcf	14,3	;volatile
  3248                           
  3249                           ;main.c: 204:     LATC3 = 0;
  3250  0727  0022               	movlb	2	; select bank2
  3251  0728  118E               	bcf	14,3	;volatile
  3252  0729  0008               	return
  3253  072A                     __end_of_Beep_Init:	
  3254                           
  3255                           	psect	intentry
  3256  0004                     __pintentry:	
  3257 ;; *************** function _isr *****************
  3258 ;; Defined at:
  3259 ;;		line 220 in file "main.c"
  3260 ;; Parameters:    Size  Location     Type
  3261 ;;		None
  3262 ;; Auto vars:     Size  Location     Type
  3263 ;;		None
  3264 ;; Return value:  Size  Location     Type
  3265 ;;                  1    wreg      void 
  3266 ;; Registers used:
  3267 ;;		wreg
  3268 ;; Tracked objects:
  3269 ;;		On entry : 0/0
  3270 ;;		On exit  : 1F/0
  3271 ;;		Unchanged: 0/0
  3272 ;; Data sizes:     COMMON   BANK0   BANK1
  3273 ;;      Params:         0       0       0
  3274 ;;      Locals:         0       0       0
  3275 ;;      Temps:          0       0       0
  3276 ;;      Totals:         0       0       0
  3277 ;;Total ram usage:        0 bytes
  3278 ;; Hardware stack levels used:    1
  3279 ;; This function calls:
  3280 ;;		Nothing
  3281 ;; This function is called by:
  3282 ;;		Interrupt level 1
  3283 ;; This function uses a non-reentrant model
  3284 ;;
  3285                           
  3286  0004                     _isr:	
  3287                           
  3288                           ;incstack = 0
  3289  0004  147E               	bsf	126,0	;set compiler interrupt flag (level 1)
  3290                           
  3291                           ; Regs used in _isr: [wreg]
  3292  0005  3180               	pagesel	$
  3293                           
  3294                           ;main.c: 222:      if(TMR1IF == 1) {
  3295  0006  0020               	movlb	0	; select bank0
  3296  0007  1C11               	btfss	17,0	;volatile
  3297  0008  2812               	goto	i1l60
  3298                           
  3299                           ;main.c: 223:         LATC3 = !LATC3;
  3300  0009  3008               	movlw	8
  3301  000A  0022               	movlb	2	; select bank2
  3302  000B  068E               	xorwf	14,f
  3303                           
  3304                           ;main.c: 225:         TMR1H = tmr1_h;
  3305  000C  0020               	movlb	0	; select bank0
  3306  000D  085B               	movf	_tmr1_h,w
  3307  000E  0097               	movwf	23	;volatile
  3308                           
  3309                           ;main.c: 226:         TMR1L = tmr1_l;
  3310  000F  085A               	movf	_tmr1_l,w
  3311  0010  0096               	movwf	22	;volatile
  3312                           
  3313                           ;main.c: 228:         TMR1IF = 0;
  3314  0011  1011               	bcf	17,0	;volatile
  3315  0012                     i1l60:	
  3316  0012  107E               	bcf	126,0	;clear compiler interrupt flag (level 1)
  3317  0013  0009               	retfie
  3318  0014                     __end_of_isr:	
  3319  007E                     btemp	set	126	;btemp
  3320  007E                     int$flags	set	126
  3321  007E                     wtemp0	set	126


Data Sizes:
    Strings     0
    Constant    616
    Data        0
    BSS         3
    Persistent  36
    Stack       0

Auto Spaces:
    Space          Size  Autos    Used
    COMMON           14     14      14
    BANK0            80     54      61
    BANK1            32      0       0

Pointer List with Targets:

    main@p	PTR const unsigned char  size(2) Largest target is 543
		 -> lzttdmg(CODE[543]), 


Critical Paths under _main in COMMON

    _main->___xxtofl
    ___fldiv->___xxtofl

Critical Paths under _isr in COMMON

    None.

Critical Paths under _main in BANK0

    _main->___fldiv

Critical Paths under _isr in BANK0

    None.

Critical Paths under _main in BANK1

    None.

Critical Paths under _isr in BANK1

    None.

Call Graph Tables:

 ---------------------------------------------------------------------------------
 (Depth) Function   	        Calls       Base Space   Used Autos Params    Refs
 ---------------------------------------------------------------------------------
 (0) _main                                                28    28      0    3568
                                             26 BANK0     28    28      0
                          _Beep_Init
                          _PORT_Init
                          _TMR1_Init
                            ___aldiv
                            ___awdiv
                            ___fldiv
                           ___xxtofl
                              _delay
 ---------------------------------------------------------------------------------
 (1) _delay                                                3     3      0     132
                                              0 COMMON     3     3      0
 ---------------------------------------------------------------------------------
 (1) ___xxtofl                                            14    10      4     398
                                              0 COMMON    14    10      4
 ---------------------------------------------------------------------------------
 (1) ___fldiv                                             26    18      8    1273
                                              0 BANK0     26    18      8
                           ___xxtofl (ARG)
 ---------------------------------------------------------------------------------
 (1) ___awdiv                                              9     5      4     452
                                              0 COMMON     9     5      4
 ---------------------------------------------------------------------------------
 (1) ___aldiv                                             15     7      8     604
                                              0 COMMON     9     1      8
                                              0 BANK0      6     6      0
 ---------------------------------------------------------------------------------
 (1) _TMR1_Init                                            0     0      0       0
 ---------------------------------------------------------------------------------
 (1) _PORT_Init                                            0     0      0       0
                         _PORTA_Init
                         _PORTC_Init
 ---------------------------------------------------------------------------------
 (2) _PORTC_Init                                           0     0      0       0
 ---------------------------------------------------------------------------------
 (2) _PORTA_Init                                           0     0      0       0
 ---------------------------------------------------------------------------------
 (1) _Beep_Init                                            0     0      0       0
 ---------------------------------------------------------------------------------
 Estimated maximum stack depth 2
 ---------------------------------------------------------------------------------
 (Depth) Function   	        Calls       Base Space   Used Autos Params    Refs
 ---------------------------------------------------------------------------------
 (3) _isr                                                  0     0      0       0
 ---------------------------------------------------------------------------------
 Estimated maximum stack depth 3
 ---------------------------------------------------------------------------------

 Call Graph Graphs:

 _main (ROOT)
   _Beep_Init
   _PORT_Init
     _PORTA_Init
     _PORTC_Init
   _TMR1_Init
   ___aldiv
   ___awdiv
   ___fldiv
     ___xxtofl (ARG)
   ___xxtofl
   _delay

 _isr (ROOT)

 Address spaces:
Name               Size   Autos  Total    Cost      Usage
BIGRAM              70      0       0       0        0.0%
EEDATA             100      0       0       0        0.0%
NULL                 0      0       0       0        0.0%
CODE                 0      0       0       0        0.0%
BITCOMMON            E      0       0       1        0.0%
BITSFR0              0      0       0       1        0.0%
SFR0                 0      0       0       1        0.0%
COMMON               E      E       E       2      100.0%
BITSFR1              0      0       0       2        0.0%
SFR1                 0      0       0       2        0.0%
BITSFR2              0      0       0       3        0.0%
SFR2                 0      0       0       3        0.0%
STACK                0      0       0       3        0.0%
BITSFR3              0      0       0       4        0.0%
SFR3                 0      0       0       4        0.0%
ABS                  0      0      4B       4        0.0%
BITBANK0            50      0       0       5        0.0%
BITSFR4              0      0       0       5        0.0%
SFR4                 0      0       0       5        0.0%
BANK0               50     36      3D       6       76.3%
BITSFR5              0      0       0       6        0.0%
SFR5                 0      0       0       6        0.0%
BITBANK1            20      0       0       7        0.0%
BITSFR6              0      0       0       7        0.0%
SFR6                 0      0       0       7        0.0%
BANK1               20      0       0       8        0.0%
BITSFR7              0      0       0       8        0.0%
SFR7                 0      0       0       8        0.0%
BITSFR8              0      0       0       9        0.0%
SFR8                 0      0       0       9        0.0%
DATA                 0      0      4B       9        0.0%
BITSFR9              0      0       0      10        0.0%
SFR9                 0      0       0      10        0.0%
BITSFR10             0      0       0      11        0.0%
SFR10                0      0       0      11        0.0%
BITSFR11             0      0       0      12        0.0%
SFR11                0      0       0      12        0.0%
BITSFR12             0      0       0      13        0.0%
SFR12                0      0       0      13        0.0%
BITSFR13             0      0       0      14        0.0%
SFR13                0      0       0      14        0.0%
BITSFR14             0      0       0      15        0.0%
SFR14                0      0       0      15        0.0%
BITSFR15             0      0       0      16        0.0%
SFR15                0      0       0      16        0.0%
BITSFR16             0      0       0      17        0.0%
SFR16                0      0       0      17        0.0%
BITSFR17             0      0       0      18        0.0%
SFR17                0      0       0      18        0.0%
BITSFR18             0      0       0      19        0.0%
SFR18                0      0       0      19        0.0%
BITSFR19             0      0       0      20        0.0%
SFR19                0      0       0      20        0.0%
BITSFR20             0      0       0      21        0.0%
SFR20                0      0       0      21        0.0%
BITSFR21             0      0       0      22        0.0%
SFR21                0      0       0      22        0.0%
BITSFR22             0      0       0      23        0.0%
SFR22                0      0       0      23        0.0%
BITSFR23             0      0       0      24        0.0%
SFR23                0      0       0      24        0.0%
BITSFR24             0      0       0      25        0.0%
SFR24                0      0       0      25        0.0%
BITSFR25             0      0       0      26        0.0%
SFR25                0      0       0      26        0.0%
BITSFR26             0      0       0      27        0.0%
SFR26                0      0       0      27        0.0%
BITSFR27             0      0       0      28        0.0%
SFR27                0      0       0      28        0.0%
BITSFR28             0      0       0      29        0.0%
SFR28                0      0       0      29        0.0%
BITSFR29             0      0       0      30        0.0%
SFR29                0      0       0      30        0.0%
BITSFR30             0      0       0      31        0.0%
SFR30                0      0       0      31        0.0%
BITSFR31             0      0       0      32        0.0%
SFR31                0      0       0      32        0.0%


Microchip Technology PIC Macro Assembler V2.10 build 88905656 
Symbol Table                                                                                   Fri Sep 13 13:48:05 2019

           ___fldiv@aexp 0039             ___fldiv@bexp 0038             ___fldiv@sign 0031  
            __CFG_CP$OFF 0000             ___awdiv@sign 0076                      l340 059E  
                    l710 0516                      l632 0283                      l723 0560  
                    l724 056A                      l716 054C                      l653 038A  
                    l654 03A2                      l656 03AF                      _GIE 005F  
           __CFG_CPD$OFF 0000                      u905 05C2                      u925 05CE  
                    u935 05E2                      u945 05EE                      _isr 0004  
           __CFG_BORV$LO 0000                      wreg 0009             __CFG_LVP$OFF 0000  
                   l1203 05F8                     l1207 0606                     l1303 02A2  
                   l1225 0687                     l1401 050E                     l1161 0651  
                   l1153 0630                     l1251 06BE                     l1243 06AD  
                   l1235 068F                     l1219 067C                     l1411 0529  
                   l1181 05AF                     l1237 069B                     l1309 02AE  
                   l1421 055E                     l1413 0539                     l1165 0661  
                   l1157 0640                     l1149 061F                     l1191 05CD  
                   l1247 06B6                     l1335 030E                     l1423 0551  
                   l1407 0525                     l1503 04B2                     l1361 0347  
                   l1353 0319                     l1329 02F5                     l1337 02D7  
                   l1273 0257                     l1355 0330                     l1339 0313  
                   l1275 025F                     l1435 0585                     l1189 05BF  
                   l1365 0349                     l1293 027B                     l1269 0254  
                   l1199 05ED                     l1375 0372                     l1519 04F5  
                   l1289 0278                     l1457 03C9                     l1491 0479  
                   l1483 044E                     l1475 043B                     l1389 03AB  
                   l1469 03BF                     l1495 048C                     l1487 0466  
                   l1499 049F                     ?_isr 0070                     u1005 0692  
                   u1025 069C                     u1035 06A6                     u1045 06AE  
                   u1205 0303                     u1235 031C                     u1325 0360  
                   u1165 02DF                     _LATA 010C                     u1335 037B  
                   u1255 0325                     u1175 02E6                     u1415 0546  
                   _LATC 010E                     u1345 0394                     u1195 02EF  
                   u1435 0558                     u1617 0618                     u1475 0572  
                   u1395 0532                     u1627 0628                     u1637 0639  
                   u1647 0649                     u1657 065A                     u1667 066A  
                   _PEIE 005E                     i1l60 0012             __CFG_WRT$OFF 0000  
                   _main 03B4                     fsr0h 0005                     indf0 0000  
                   fsr0l 0004                     btemp 007E                     start 0014  
          __CFG_IESO$OFF 0000          ___fldiv@new_exp 0032                    ??_isr 0070  
        __end_of___aldiv 060F                    ?_main 0070          __end_of___fldiv 03B4  
        __end_of___awdiv 06C3            __CFG_WDTE$OFF 0000          ___awdiv@divisor 0070  
                  _LATC3 0873          ___awdiv@counter 0075                    _TMR1H 0017  
                  _TMR1L 0016                    _PORTA 000C                    _PORTC 000E  
                  _TRISA 008C                    _TRISC 008E             main@duration 0048  
            ?_PORTA_Init 0070           __CFG_FCMEN$OFF 0000              ?_PORTC_Init 0070  
     __size_of_TMR1_Init 000C                    _delay 060F                    _speed 072D  
     __size_of_PORT_Init 0003                    main@M 004C                    main@T 004A  
                  main@i 0050                    main@p 004E                    main@t 0046  
         __CFG_BOREN$OFF 0000          __end_of_note_hh 06D1          __end_of_note_ll 0709  
                  status 0003          __end_of_lzttdmg 023B                    wtemp0 007E  
          _lzttdmg_speed 072F       __size_of_Beep_Init 0004           __CFG_MCLRE$OFF 0000  
        __initialization 0015             __end_of_main 04F9                   ??_main 003A  
         __CFG_PLLEN$OFF 0000                   ?_delay 0070         ___awdiv@dividend 0072  
                 _ANSELA 018C                   _ANSELC 018E                   _OSCCON 0099  
                 _TMR1IE 0488                   _TMR1IF 0088                   _TMR1ON 00C0  
                 _TRISC3 0473         __end_of___xxtofl 058E           __CFG_PWRTE$OFF 0000  
    __size_of_PORTA_Init 0008      __size_of_PORTC_Init 0009        __end_of_TMR1_Init 0715  
              ??___aldiv 0078                ??___fldiv 0028                ??___awdiv 0074  
      __end_of_PORT_Init 072D                   delay@t 0072         ___awdiv@quotient 0077  
                 _tmr1_h 005B                   _tmr1_l 005A                   _note_h 06D1  
                 _note_l 06ED                   _note_m 06DF        __end_of_Beep_Init 072A  
           ___xxtofl@arg 007A             ___xxtofl@exp 0079             ___xxtofl@val 0070  
__end_of__initialization 0019           __pcstackCOMMON 0070            __end_of_delay 0672  
          __end_of_speed 072F                  ??_delay 0070               __pbssBANK0 005A  
             __pmaintext 03B4               __pintentry 0004                ?___xxtofl 0070  
           ??_PORTA_Init 0070             ??_PORTC_Init 0070                  ___aldiv 058E  
     __end_of_PORTA_Init 0726                  ___fldiv 023B                  ___awdiv 0672  
     __end_of_PORTC_Init 071E          __CFG_STVREN$OFF 0000                  __ptext1 060F  
                __ptext2 04F9                  __ptext3 023B                  __ptext4 0672  
                __ptext5 058E                  __ptext6 0709                  __ptext7 072A  
                __ptext8 0715                  __ptext9 071E                  _ds_temp 0056  
           __size_of_isr 0010               ??___xxtofl 0074         ___aldiv@dividend 0074  
                _note_hh 06C3                  _note_ll 06FB                  _lzttdmg 001C  
   end_of_initialization 0019         ___aldiv@quotient 0022                _TMR1_Init 0709  
              _PORT_Init 072A         __CFG_FOSC$INTOSC 0000            ___xxtofl@sign 0078  
            ___fldiv@grs 0034              ___fldiv@rem 002D                _Beep_Init 0726  
             ?_TMR1_Init 0070               ?_PORT_Init 0070           __end_of_note_h 06DF  
         __end_of_note_l 06FB           __end_of_note_m 06ED      start_initialization 0015  
            __end_of_isr 0014               ?_Beep_Init 0070                ___fldiv@a 0020  
              ___fldiv@b 0024                ___latbits 0000            __pcstackBANK0 0020  
      __size_of___xxtofl 0095    __end_of_lzttdmg_speed 0730                __pnvBANK0 0056  
               ?___aldiv 0070                 ?___fldiv 0020                 ?___awdiv 0070  
            ??_TMR1_Init 0070              ??_PORT_Init 0070           __size_of_delay 0063  
            ??_Beep_Init 0070          ___aldiv@divisor 0070          ___aldiv@counter 0020  
              main@audio 0054         __size_of___aldiv 0081         __size_of___fldiv 0179  
       __size_of___awdiv 0051                 ___xxtofl 04F9                 _main$734 0042  
               __ptext10 0726            __size_of_main 0145                 _tmr1_con 005C  
               int$flags 007E                 main@tone 0052                 main@tune 0040  
               intlevel1 0000        __CFG_CLKOUTEN$OFF 0000            __pstringtext1 06C3  
          __pstringtext2 06D1            __pstringtext3 06DF            __pstringtext4 06ED  
          __pstringtext5 06FB            __pstringtext6 072D            __pstringtext7 072F  
          __pstringtext8 001C               _PORTA_Init 071E             ___aldiv@sign 0021  
             _PORTC_Init 0715  
