

Microchip MPLAB XC8 Assembler V2.10 build 88905656 
                                                                                               Tue Sep 24 21:37:14 2019

Microchip MPLAB XC8 C Compiler v2.10 (Free license) build 20190730164152 Og1 
     1                           	processor	16LF1823
     2                           	opt	pw 120
     3                           	opt	flic
     4                           	psect	idataCOMMON,global,class=CODE,delta=2
     5                           	psect	cinit,global,class=CODE,merge=1,delta=2
     6                           	psect	dataCOMMON,global,class=COMMON,space=1,delta=1
     7                           	psect	bssBANK0,global,class=BANK0,space=1,delta=1
     8                           	psect	cstackCOMMON,global,class=COMMON,space=1,delta=1
     9                           	psect	cstackBANK0,global,class=BANK0,space=1,delta=1
    10                           	psect	maintext,global,class=CODE,merge=1,split=1,delta=2
    11                           	psect	text1,local,class=CODE,merge=1,delta=2,group=1
    12                           	psect	text2,local,class=CODE,merge=1,delta=2,group=1
    13                           	psect	text3,local,class=CODE,merge=1,delta=2
    14                           	psect	text4,local,class=CODE,merge=1,delta=2
    15                           	psect	text5,local,class=CODE,merge=1,delta=2
    16                           	psect	text6,local,class=CODE,merge=1,delta=2
    17                           	psect	text7,local,class=CODE,merge=1,delta=2
    18                           	psect	text8,local,class=CODE,merge=1,delta=2
    19                           	psect	text9,local,class=CODE,merge=1,delta=2,group=1
    20                           	psect	text10,local,class=CODE,merge=1,delta=2,group=1
    21                           	psect	text11,local,class=CODE,merge=1,delta=2
    22                           	psect	text12,local,class=CODE,merge=1,delta=2
    23                           	psect	text13,local,class=CODE,merge=1,delta=2
    24                           	psect	text14,local,class=CODE,merge=1,delta=2
    25                           	psect	intentry,global,class=CODE,delta=2
    26                           	psect	text16,local,class=CODE,merge=1,delta=2
    27                           	psect	text17,local,class=CODE,merge=1,inline,delta=2
    28                           	dabs	1,0x7E,2
    29  0000                     
    30                           ; Version 2.10
    31                           ; Generated 31/07/2019 GMT
    32                           ; 
    33                           ; Copyright © 2019, Microchip Technology Inc. and its subsidiaries ("Microchip")
    34                           ; All rights reserved.
    35                           ; 
    36                           ; This software is developed by Microchip Technology Inc. and its subsidiaries ("Microch
      +                          ip").
    37                           ; 
    38                           ; Redistribution and use in source and binary forms, with or without modification, are
    39                           ; permitted provided that the following conditions are met:
    40                           ; 
    41                           ;     1. Redistributions of source code must retain the above copyright notice, this lis
      +                          t of
    42                           ;        conditions and the following disclaimer.
    43                           ; 
    44                           ;     2. Redistributions in binary form must reproduce the above copyright notice, this 
      +                          list
    45                           ;        of conditions and the following disclaimer in the documentation and/or other
    46                           ;        materials provided with the distribution.
    47                           ; 
    48                           ;     3. Microchip's name may not be used to endorse or promote products derived from th
      +                          is
    49                           ;        software without specific prior written permission.
    50                           ; 
    51                           ; THIS SOFTWARE IS PROVIDED BY MICROCHIP "AS IS" AND ANY EXPRESS OR IMPLIED WARRANTIES,
    52                           ; INCLUDING, BUT NOT LIMITED TO, THE IMPLIED WARRANTIES OF MERCHANTABILITY AND FITNESS F
      +                          OR
    53                           ; PURPOSE ARE DISCLAIMED.  IN NO EVENT SHALL MICROCHIP BE LIABLE FOR ANY DIRECT, INDIREC
      +                          T,
    54                           ; INCIDENTAL, SPECIAL, EXEMPLARY, OR CONSEQUENTIAL DAMAGES (INCLUDING BUT NOT LIMITED TO
    55                           ; PROCUREMENT OF SUBSTITUTE GOODS OR SERVICES; LOSS OF USE, DATA OR PROFITS; OR BUSINESS
    56                           ; INTERRUPTION) HOWSOEVER CAUSED AND ON ANY THEORY OF LIABILITY, WHETHER IN CONTRACT, ST
      +                          RICT
    57                           ; LIABILITY, OR TORT (INCLUDING NEGLIGENCE OR OTHERWISE) ARISING IN ANY WAY OUT OF THE U
      +                          SE OF
    58                           ; THIS SOFTWARE, EVEN IF ADVISED OF THE POSSIBILITY OF SUCH DAMAGE.
    59                           ; 
    60                           ; 
    61                           ; Code-generator required, PIC16LF1823 Definitions
    62                           ; 
    63                           ; SFR Addresses
    64  0000                     	;# 
    65  0001                     	;# 
    66  0002                     	;# 
    67  0003                     	;# 
    68  0004                     	;# 
    69  0005                     	;# 
    70  0006                     	;# 
    71  0007                     	;# 
    72  0008                     	;# 
    73  0009                     	;# 
    74  000A                     	;# 
    75  000B                     	;# 
    76  000C                     	;# 
    77  000E                     	;# 
    78  0011                     	;# 
    79  0012                     	;# 
    80  0015                     	;# 
    81  0016                     	;# 
    82  0016                     	;# 
    83  0017                     	;# 
    84  0018                     	;# 
    85  0019                     	;# 
    86  001A                     	;# 
    87  001B                     	;# 
    88  001C                     	;# 
    89  001E                     	;# 
    90  001F                     	;# 
    91  008C                     	;# 
    92  008E                     	;# 
    93  0091                     	;# 
    94  0092                     	;# 
    95  0095                     	;# 
    96  0096                     	;# 
    97  0097                     	;# 
    98  0098                     	;# 
    99  0099                     	;# 
   100  009A                     	;# 
   101  009B                     	;# 
   102  009B                     	;# 
   103  009C                     	;# 
   104  009D                     	;# 
   105  009E                     	;# 
   106  010C                     	;# 
   107  010E                     	;# 
   108  0111                     	;# 
   109  0112                     	;# 
   110  0113                     	;# 
   111  0114                     	;# 
   112  0115                     	;# 
   113  0116                     	;# 
   114  0117                     	;# 
   115  0118                     	;# 
   116  0119                     	;# 
   117  011A                     	;# 
   118  011B                     	;# 
   119  011D                     	;# 
   120  011D                     	;# 
   121  018C                     	;# 
   122  018E                     	;# 
   123  0191                     	;# 
   124  0191                     	;# 
   125  0192                     	;# 
   126  0193                     	;# 
   127  0193                     	;# 
   128  0193                     	;# 
   129  0194                     	;# 
   130  0195                     	;# 
   131  0196                     	;# 
   132  0199                     	;# 
   133  019A                     	;# 
   134  019B                     	;# 
   135  019B                     	;# 
   136  019B                     	;# 
   137  019B                     	;# 
   138  019C                     	;# 
   139  019C                     	;# 
   140  019D                     	;# 
   141  019E                     	;# 
   142  019F                     	;# 
   143  020C                     	;# 
   144  020E                     	;# 
   145  0211                     	;# 
   146  0211                     	;# 
   147  0212                     	;# 
   148  0212                     	;# 
   149  0213                     	;# 
   150  0213                     	;# 
   151  0214                     	;# 
   152  0214                     	;# 
   153  0215                     	;# 
   154  0215                     	;# 
   155  0215                     	;# 
   156  0216                     	;# 
   157  0216                     	;# 
   158  0217                     	;# 
   159  0217                     	;# 
   160  0291                     	;# 
   161  0291                     	;# 
   162  0292                     	;# 
   163  0293                     	;# 
   164  0294                     	;# 
   165  0295                     	;# 
   166  0295                     	;# 
   167  0296                     	;# 
   168  0391                     	;# 
   169  0392                     	;# 
   170  0393                     	;# 
   171  039A                     	;# 
   172  039C                     	;# 
   173  039D                     	;# 
   174  039E                     	;# 
   175  039F                     	;# 
   176  0FE4                     	;# 
   177  0FE5                     	;# 
   178  0FE6                     	;# 
   179  0FE7                     	;# 
   180  0FE8                     	;# 
   181  0FE9                     	;# 
   182  0FEA                     	;# 
   183  0FEB                     	;# 
   184  0FED                     	;# 
   185  0FEE                     	;# 
   186  0FEF                     	;# 
   187  0000                     	;# 
   188  0001                     	;# 
   189  0002                     	;# 
   190  0003                     	;# 
   191  0004                     	;# 
   192  0005                     	;# 
   193  0006                     	;# 
   194  0007                     	;# 
   195  0008                     	;# 
   196  0009                     	;# 
   197  000A                     	;# 
   198  000B                     	;# 
   199  000C                     	;# 
   200  000E                     	;# 
   201  0011                     	;# 
   202  0012                     	;# 
   203  0015                     	;# 
   204  0016                     	;# 
   205  0016                     	;# 
   206  0017                     	;# 
   207  0018                     	;# 
   208  0019                     	;# 
   209  001A                     	;# 
   210  001B                     	;# 
   211  001C                     	;# 
   212  001E                     	;# 
   213  001F                     	;# 
   214  008C                     	;# 
   215  008E                     	;# 
   216  0091                     	;# 
   217  0092                     	;# 
   218  0095                     	;# 
   219  0096                     	;# 
   220  0097                     	;# 
   221  0098                     	;# 
   222  0099                     	;# 
   223  009A                     	;# 
   224  009B                     	;# 
   225  009B                     	;# 
   226  009C                     	;# 
   227  009D                     	;# 
   228  009E                     	;# 
   229  010C                     	;# 
   230  010E                     	;# 
   231  0111                     	;# 
   232  0112                     	;# 
   233  0113                     	;# 
   234  0114                     	;# 
   235  0115                     	;# 
   236  0116                     	;# 
   237  0117                     	;# 
   238  0118                     	;# 
   239  0119                     	;# 
   240  011A                     	;# 
   241  011B                     	;# 
   242  011D                     	;# 
   243  011D                     	;# 
   244  018C                     	;# 
   245  018E                     	;# 
   246  0191                     	;# 
   247  0191                     	;# 
   248  0192                     	;# 
   249  0193                     	;# 
   250  0193                     	;# 
   251  0193                     	;# 
   252  0194                     	;# 
   253  0195                     	;# 
   254  0196                     	;# 
   255  0199                     	;# 
   256  019A                     	;# 
   257  019B                     	;# 
   258  019B                     	;# 
   259  019B                     	;# 
   260  019B                     	;# 
   261  019C                     	;# 
   262  019C                     	;# 
   263  019D                     	;# 
   264  019E                     	;# 
   265  019F                     	;# 
   266  020C                     	;# 
   267  020E                     	;# 
   268  0211                     	;# 
   269  0211                     	;# 
   270  0212                     	;# 
   271  0212                     	;# 
   272  0213                     	;# 
   273  0213                     	;# 
   274  0214                     	;# 
   275  0214                     	;# 
   276  0215                     	;# 
   277  0215                     	;# 
   278  0215                     	;# 
   279  0216                     	;# 
   280  0216                     	;# 
   281  0217                     	;# 
   282  0217                     	;# 
   283  0291                     	;# 
   284  0291                     	;# 
   285  0292                     	;# 
   286  0293                     	;# 
   287  0294                     	;# 
   288  0295                     	;# 
   289  0295                     	;# 
   290  0296                     	;# 
   291  0391                     	;# 
   292  0392                     	;# 
   293  0393                     	;# 
   294  039A                     	;# 
   295  039C                     	;# 
   296  039D                     	;# 
   297  039E                     	;# 
   298  039F                     	;# 
   299  0FE4                     	;# 
   300  0FE5                     	;# 
   301  0FE6                     	;# 
   302  0FE7                     	;# 
   303  0FE8                     	;# 
   304  0FE9                     	;# 
   305  0FEA                     	;# 
   306  0FEB                     	;# 
   307  0FED                     	;# 
   308  0FEE                     	;# 
   309  0FEF                     	;# 
   310  0000                     	;# 
   311  0001                     	;# 
   312  0002                     	;# 
   313  0003                     	;# 
   314  0004                     	;# 
   315  0005                     	;# 
   316  0006                     	;# 
   317  0007                     	;# 
   318  0008                     	;# 
   319  0009                     	;# 
   320  000A                     	;# 
   321  000B                     	;# 
   322  000C                     	;# 
   323  000E                     	;# 
   324  0011                     	;# 
   325  0012                     	;# 
   326  0015                     	;# 
   327  0016                     	;# 
   328  0016                     	;# 
   329  0017                     	;# 
   330  0018                     	;# 
   331  0019                     	;# 
   332  001A                     	;# 
   333  001B                     	;# 
   334  001C                     	;# 
   335  001E                     	;# 
   336  001F                     	;# 
   337  008C                     	;# 
   338  008E                     	;# 
   339  0091                     	;# 
   340  0092                     	;# 
   341  0095                     	;# 
   342  0096                     	;# 
   343  0097                     	;# 
   344  0098                     	;# 
   345  0099                     	;# 
   346  009A                     	;# 
   347  009B                     	;# 
   348  009B                     	;# 
   349  009C                     	;# 
   350  009D                     	;# 
   351  009E                     	;# 
   352  010C                     	;# 
   353  010E                     	;# 
   354  0111                     	;# 
   355  0112                     	;# 
   356  0113                     	;# 
   357  0114                     	;# 
   358  0115                     	;# 
   359  0116                     	;# 
   360  0117                     	;# 
   361  0118                     	;# 
   362  0119                     	;# 
   363  011A                     	;# 
   364  011B                     	;# 
   365  011D                     	;# 
   366  011D                     	;# 
   367  018C                     	;# 
   368  018E                     	;# 
   369  0191                     	;# 
   370  0191                     	;# 
   371  0192                     	;# 
   372  0193                     	;# 
   373  0193                     	;# 
   374  0193                     	;# 
   375  0194                     	;# 
   376  0195                     	;# 
   377  0196                     	;# 
   378  0199                     	;# 
   379  019A                     	;# 
   380  019B                     	;# 
   381  019B                     	;# 
   382  019B                     	;# 
   383  019B                     	;# 
   384  019C                     	;# 
   385  019C                     	;# 
   386  019D                     	;# 
   387  019E                     	;# 
   388  019F                     	;# 
   389  020C                     	;# 
   390  020E                     	;# 
   391  0211                     	;# 
   392  0211                     	;# 
   393  0212                     	;# 
   394  0212                     	;# 
   395  0213                     	;# 
   396  0213                     	;# 
   397  0214                     	;# 
   398  0214                     	;# 
   399  0215                     	;# 
   400  0215                     	;# 
   401  0215                     	;# 
   402  0216                     	;# 
   403  0216                     	;# 
   404  0217                     	;# 
   405  0217                     	;# 
   406  0291                     	;# 
   407  0291                     	;# 
   408  0292                     	;# 
   409  0293                     	;# 
   410  0294                     	;# 
   411  0295                     	;# 
   412  0295                     	;# 
   413  0296                     	;# 
   414  0391                     	;# 
   415  0392                     	;# 
   416  0393                     	;# 
   417  039A                     	;# 
   418  039C                     	;# 
   419  039D                     	;# 
   420  039E                     	;# 
   421  039F                     	;# 
   422  0FE4                     	;# 
   423  0FE5                     	;# 
   424  0FE6                     	;# 
   425  0FE7                     	;# 
   426  0FE8                     	;# 
   427  0FE9                     	;# 
   428  0FEA                     	;# 
   429  0FEB                     	;# 
   430  0FED                     	;# 
   431  0FEE                     	;# 
   432  0FEF                     	;# 
   433  0000                     	;# 
   434  0001                     	;# 
   435  0002                     	;# 
   436  0003                     	;# 
   437  0004                     	;# 
   438  0005                     	;# 
   439  0006                     	;# 
   440  0007                     	;# 
   441  0008                     	;# 
   442  0009                     	;# 
   443  000A                     	;# 
   444  000B                     	;# 
   445  000C                     	;# 
   446  000E                     	;# 
   447  0011                     	;# 
   448  0012                     	;# 
   449  0015                     	;# 
   450  0016                     	;# 
   451  0016                     	;# 
   452  0017                     	;# 
   453  0018                     	;# 
   454  0019                     	;# 
   455  001A                     	;# 
   456  001B                     	;# 
   457  001C                     	;# 
   458  001E                     	;# 
   459  001F                     	;# 
   460  008C                     	;# 
   461  008E                     	;# 
   462  0091                     	;# 
   463  0092                     	;# 
   464  0095                     	;# 
   465  0096                     	;# 
   466  0097                     	;# 
   467  0098                     	;# 
   468  0099                     	;# 
   469  009A                     	;# 
   470  009B                     	;# 
   471  009B                     	;# 
   472  009C                     	;# 
   473  009D                     	;# 
   474  009E                     	;# 
   475  010C                     	;# 
   476  010E                     	;# 
   477  0111                     	;# 
   478  0112                     	;# 
   479  0113                     	;# 
   480  0114                     	;# 
   481  0115                     	;# 
   482  0116                     	;# 
   483  0117                     	;# 
   484  0118                     	;# 
   485  0119                     	;# 
   486  011A                     	;# 
   487  011B                     	;# 
   488  011D                     	;# 
   489  011D                     	;# 
   490  018C                     	;# 
   491  018E                     	;# 
   492  0191                     	;# 
   493  0191                     	;# 
   494  0192                     	;# 
   495  0193                     	;# 
   496  0193                     	;# 
   497  0193                     	;# 
   498  0194                     	;# 
   499  0195                     	;# 
   500  0196                     	;# 
   501  0199                     	;# 
   502  019A                     	;# 
   503  019B                     	;# 
   504  019B                     	;# 
   505  019B                     	;# 
   506  019B                     	;# 
   507  019C                     	;# 
   508  019C                     	;# 
   509  019D                     	;# 
   510  019E                     	;# 
   511  019F                     	;# 
   512  020C                     	;# 
   513  020E                     	;# 
   514  0211                     	;# 
   515  0211                     	;# 
   516  0212                     	;# 
   517  0212                     	;# 
   518  0213                     	;# 
   519  0213                     	;# 
   520  0214                     	;# 
   521  0214                     	;# 
   522  0215                     	;# 
   523  0215                     	;# 
   524  0215                     	;# 
   525  0216                     	;# 
   526  0216                     	;# 
   527  0217                     	;# 
   528  0217                     	;# 
   529  0291                     	;# 
   530  0291                     	;# 
   531  0292                     	;# 
   532  0293                     	;# 
   533  0294                     	;# 
   534  0295                     	;# 
   535  0295                     	;# 
   536  0296                     	;# 
   537  0391                     	;# 
   538  0392                     	;# 
   539  0393                     	;# 
   540  039A                     	;# 
   541  039C                     	;# 
   542  039D                     	;# 
   543  039E                     	;# 
   544  039F                     	;# 
   545  0FE4                     	;# 
   546  0FE5                     	;# 
   547  0FE6                     	;# 
   548  0FE7                     	;# 
   549  0FE8                     	;# 
   550  0FE9                     	;# 
   551  0FEA                     	;# 
   552  0FEB                     	;# 
   553  0FED                     	;# 
   554  0FEE                     	;# 
   555  0FEF                     	;# 
   556  0000                     	;# 
   557  0001                     	;# 
   558  0002                     	;# 
   559  0003                     	;# 
   560  0004                     	;# 
   561  0005                     	;# 
   562  0006                     	;# 
   563  0007                     	;# 
   564  0008                     	;# 
   565  0009                     	;# 
   566  000A                     	;# 
   567  000B                     	;# 
   568  000C                     	;# 
   569  000E                     	;# 
   570  0011                     	;# 
   571  0012                     	;# 
   572  0015                     	;# 
   573  0016                     	;# 
   574  0016                     	;# 
   575  0017                     	;# 
   576  0018                     	;# 
   577  0019                     	;# 
   578  001A                     	;# 
   579  001B                     	;# 
   580  001C                     	;# 
   581  001E                     	;# 
   582  001F                     	;# 
   583  008C                     	;# 
   584  008E                     	;# 
   585  0091                     	;# 
   586  0092                     	;# 
   587  0095                     	;# 
   588  0096                     	;# 
   589  0097                     	;# 
   590  0098                     	;# 
   591  0099                     	;# 
   592  009A                     	;# 
   593  009B                     	;# 
   594  009B                     	;# 
   595  009C                     	;# 
   596  009D                     	;# 
   597  009E                     	;# 
   598  010C                     	;# 
   599  010E                     	;# 
   600  0111                     	;# 
   601  0112                     	;# 
   602  0113                     	;# 
   603  0114                     	;# 
   604  0115                     	;# 
   605  0116                     	;# 
   606  0117                     	;# 
   607  0118                     	;# 
   608  0119                     	;# 
   609  011A                     	;# 
   610  011B                     	;# 
   611  011D                     	;# 
   612  011D                     	;# 
   613  018C                     	;# 
   614  018E                     	;# 
   615  0191                     	;# 
   616  0191                     	;# 
   617  0192                     	;# 
   618  0193                     	;# 
   619  0193                     	;# 
   620  0193                     	;# 
   621  0194                     	;# 
   622  0195                     	;# 
   623  0196                     	;# 
   624  0199                     	;# 
   625  019A                     	;# 
   626  019B                     	;# 
   627  019B                     	;# 
   628  019B                     	;# 
   629  019B                     	;# 
   630  019C                     	;# 
   631  019C                     	;# 
   632  019D                     	;# 
   633  019E                     	;# 
   634  019F                     	;# 
   635  020C                     	;# 
   636  020E                     	;# 
   637  0211                     	;# 
   638  0211                     	;# 
   639  0212                     	;# 
   640  0212                     	;# 
   641  0213                     	;# 
   642  0213                     	;# 
   643  0214                     	;# 
   644  0214                     	;# 
   645  0215                     	;# 
   646  0215                     	;# 
   647  0215                     	;# 
   648  0216                     	;# 
   649  0216                     	;# 
   650  0217                     	;# 
   651  0217                     	;# 
   652  0291                     	;# 
   653  0291                     	;# 
   654  0292                     	;# 
   655  0293                     	;# 
   656  0294                     	;# 
   657  0295                     	;# 
   658  0295                     	;# 
   659  0296                     	;# 
   660  0391                     	;# 
   661  0392                     	;# 
   662  0393                     	;# 
   663  039A                     	;# 
   664  039C                     	;# 
   665  039D                     	;# 
   666  039E                     	;# 
   667  039F                     	;# 
   668  0FE4                     	;# 
   669  0FE5                     	;# 
   670  0FE6                     	;# 
   671  0FE7                     	;# 
   672  0FE8                     	;# 
   673  0FE9                     	;# 
   674  0FEA                     	;# 
   675  0FEB                     	;# 
   676  0FED                     	;# 
   677  0FEE                     	;# 
   678  0FEF                     	;# 
   679  0000                     	;# 
   680  0001                     	;# 
   681  0002                     	;# 
   682  0003                     	;# 
   683  0004                     	;# 
   684  0005                     	;# 
   685  0006                     	;# 
   686  0007                     	;# 
   687  0008                     	;# 
   688  0009                     	;# 
   689  000A                     	;# 
   690  000B                     	;# 
   691  000C                     	;# 
   692  000E                     	;# 
   693  0011                     	;# 
   694  0012                     	;# 
   695  0015                     	;# 
   696  0016                     	;# 
   697  0016                     	;# 
   698  0017                     	;# 
   699  0018                     	;# 
   700  0019                     	;# 
   701  001A                     	;# 
   702  001B                     	;# 
   703  001C                     	;# 
   704  001E                     	;# 
   705  001F                     	;# 
   706  008C                     	;# 
   707  008E                     	;# 
   708  0091                     	;# 
   709  0092                     	;# 
   710  0095                     	;# 
   711  0096                     	;# 
   712  0097                     	;# 
   713  0098                     	;# 
   714  0099                     	;# 
   715  009A                     	;# 
   716  009B                     	;# 
   717  009B                     	;# 
   718  009C                     	;# 
   719  009D                     	;# 
   720  009E                     	;# 
   721  010C                     	;# 
   722  010E                     	;# 
   723  0111                     	;# 
   724  0112                     	;# 
   725  0113                     	;# 
   726  0114                     	;# 
   727  0115                     	;# 
   728  0116                     	;# 
   729  0117                     	;# 
   730  0118                     	;# 
   731  0119                     	;# 
   732  011A                     	;# 
   733  011B                     	;# 
   734  011D                     	;# 
   735  011D                     	;# 
   736  018C                     	;# 
   737  018E                     	;# 
   738  0191                     	;# 
   739  0191                     	;# 
   740  0192                     	;# 
   741  0193                     	;# 
   742  0193                     	;# 
   743  0193                     	;# 
   744  0194                     	;# 
   745  0195                     	;# 
   746  0196                     	;# 
   747  0199                     	;# 
   748  019A                     	;# 
   749  019B                     	;# 
   750  019B                     	;# 
   751  019B                     	;# 
   752  019B                     	;# 
   753  019C                     	;# 
   754  019C                     	;# 
   755  019D                     	;# 
   756  019E                     	;# 
   757  019F                     	;# 
   758  020C                     	;# 
   759  020E                     	;# 
   760  0211                     	;# 
   761  0211                     	;# 
   762  0212                     	;# 
   763  0212                     	;# 
   764  0213                     	;# 
   765  0213                     	;# 
   766  0214                     	;# 
   767  0214                     	;# 
   768  0215                     	;# 
   769  0215                     	;# 
   770  0215                     	;# 
   771  0216                     	;# 
   772  0216                     	;# 
   773  0217                     	;# 
   774  0217                     	;# 
   775  0291                     	;# 
   776  0291                     	;# 
   777  0292                     	;# 
   778  0293                     	;# 
   779  0294                     	;# 
   780  0295                     	;# 
   781  0295                     	;# 
   782  0296                     	;# 
   783  0391                     	;# 
   784  0392                     	;# 
   785  0393                     	;# 
   786  039A                     	;# 
   787  039C                     	;# 
   788  039D                     	;# 
   789  039E                     	;# 
   790  039F                     	;# 
   791  0FE4                     	;# 
   792  0FE5                     	;# 
   793  0FE6                     	;# 
   794  0FE7                     	;# 
   795  0FE8                     	;# 
   796  0FE9                     	;# 
   797  0FEA                     	;# 
   798  0FEB                     	;# 
   799  0FED                     	;# 
   800  0FEE                     	;# 
   801  0FEF                     	;# 
   802                           
   803                           	psect	idataCOMMON
   804  0558                     __pidataCOMMON:	
   805                           
   806                           ;initializer for isr@i
   807  0558  3401               	retlw	1
   808  000E                     _PORTC	set	14
   809  000C                     _PORTA	set	12
   810  0015                     _TMR0	set	21
   811  0063                     _RA3	set	99
   812  0074                     _RC4	set	116
   813  005A                     _TMR0IF	set	90
   814  005D                     _TMR0IE	set	93
   815  005E                     _PEIE	set	94
   816  005F                     _GIE	set	95
   817  0099                     _OSCCON	set	153
   818  008E                     _TRISC	set	142
   819  008C                     _TRISA	set	140
   820  0095                     _OPTION_REG	set	149
   821  0463                     _TRISA3	set	1123
   822  0473                     _TRISC3	set	1139
   823  0475                     _TRISC5	set	1141
   824  0464                     _TRISA4	set	1124
   825  0465                     _TRISA5	set	1125
   826  0472                     _TRISC2	set	1138
   827  0471                     _TRISC1	set	1137
   828  0470                     _TRISC0	set	1136
   829  0462                     _TRISA2	set	1122
   830  0461                     _TRISA1	set	1121
   831  0460                     _TRISA0	set	1120
   832  0474                     _TRISC4	set	1140
   833  010E                     _LATC	set	270
   834  010C                     _LATA	set	268
   835  0873                     _LATC3	set	2163
   836  0875                     _LATC5	set	2165
   837  0864                     _LATA4	set	2148
   838  0865                     _LATA5	set	2149
   839  0872                     _LATC2	set	2162
   840  0871                     _LATC1	set	2161
   841  0870                     _LATC0	set	2160
   842  0862                     _LATA2	set	2146
   843  0861                     _LATA1	set	2145
   844  0860                     _LATA0	set	2144
   845  018E                     _ANSELC	set	398
   846  018C                     _ANSELA	set	396
   847                           
   848                           ; #config settings
   849  0000                     
   850                           	psect	cinit
   851  0061                     start_initialization:	
   852  0061                     __initialization:	
   853                           
   854                           ; Initialize objects allocated to COMMON
   855  0061  3185  2558  3180   	fcall	__pidataCOMMON	;fetch initializer
   856  0064  00FA               	movwf	__pdataCOMMON& (0+127)
   857                           
   858                           ; Clear objects allocated to BANK0
   859  0065  01D0               	clrf	__pbssBANK0& (0+127)
   860  0066  01D1               	clrf	(__pbssBANK0+1)& (0+127)
   861  0067  01D2               	clrf	(__pbssBANK0+2)& (0+127)
   862  0068  01D3               	clrf	(__pbssBANK0+3)& (0+127)
   863  0069                     end_of_initialization:	
   864                           ;End of C runtime variable initialization code
   865                           
   866  0069                     __end_of__initialization:	
   867  0069  107E               	bcf	int$flags,0	;clear compiler interrupt flag (level 1)
   868  006A  0020               	movlb	0
   869  006B  2AC8               	ljmp	_main	;jump to C main() function
   870                           
   871                           	psect	dataCOMMON
   872  007A                     __pdataCOMMON:	
   873  007A                     isr@i:	
   874  007A                     	ds	1
   875                           
   876                           	psect	bssBANK0
   877  0050                     __pbssBANK0:	
   878  0050                     _ds:	
   879  0050                     	ds	4
   880                           
   881                           	psect	cstackCOMMON
   882  0070                     __pcstackCOMMON:	
   883  0070                     ?_FOSC_Init:	
   884  0070                     ?_PORT_Init:	
   885                           ; 1 bytes @ 0x0
   886                           
   887  0070                     ?_DS_Convert:	
   888                           ; 1 bytes @ 0x0
   889                           
   890  0070                     ?_PORTA_Init:	
   891                           ; 1 bytes @ 0x0
   892                           
   893  0070                     ?_PORTC_Init:	
   894                           ; 1 bytes @ 0x0
   895                           
   896  0070                     ?_TIME0_Init:	
   897                           ; 1 bytes @ 0x0
   898                           
   899  0070                     ?_isr:	
   900                           ; 1 bytes @ 0x0
   901                           
   902  0070                     ?_main:	
   903                           ; 1 bytes @ 0x0
   904                           
   905  0070                     ?_DS_Rest:	
   906                           ; 1 bytes @ 0x0
   907                           
   908  0070                     ?_DS_Write:	
   909                           ; 1 bytes @ 0x0
   910                           
   911  0070                     ?_DS_Read:	
   912                           ; 1 bytes @ 0x0
   913                           
   914  0070                     ?_display_place:	
   915                           ; 1 bytes @ 0x0
   916                           
   917  0070                     ??_display_place:	
   918                           ; 1 bytes @ 0x0
   919                           
   920                           
   921                           ; 1 bytes @ 0x0
   922  0070                     	ds	2
   923  0072                     display_place@num:	
   924                           
   925                           ; 1 bytes @ 0x2
   926  0072                     	ds	1
   927  0073                     ?_display_2seg_hc:	
   928  0073                     display_2seg_hc@dp:	
   929                           ; 1 bytes @ 0x3
   930                           
   931                           
   932                           ; 1 bytes @ 0x3
   933  0073                     	ds	1
   934  0074                     display_2seg_hc@seg:	
   935                           
   936                           ; 1 bytes @ 0x4
   937  0074                     	ds	1
   938  0075                     ??_display_2seg_hc:	
   939                           
   940                           ; 1 bytes @ 0x5
   941  0075                     	ds	2
   942  0077                     display_2seg_hc@num:	
   943                           
   944                           ; 1 bytes @ 0x7
   945  0077                     	ds	1
   946  0078                     ??_isr:	
   947                           
   948                           ; 1 bytes @ 0x8
   949  0078                     	ds	2
   950                           
   951                           	psect	cstackBANK0
   952  0020                     __pcstackBANK0:	
   953  0020                     ??_FOSC_Init:	
   954  0020                     ??_PORT_Init:	
   955                           ; 1 bytes @ 0x0
   956                           
   957  0020                     ??_PORTA_Init:	
   958                           ; 1 bytes @ 0x0
   959                           
   960  0020                     ??_PORTC_Init:	
   961                           ; 1 bytes @ 0x0
   962                           
   963  0020                     ??_TIME0_Init:	
   964                           ; 1 bytes @ 0x0
   965                           
   966  0020                     ??_DS_Rest:	
   967                           ; 1 bytes @ 0x0
   968                           
   969  0020                     ??_DS_Write:	
   970                           ; 1 bytes @ 0x0
   971                           
   972  0020                     ??_DS_Read:	
   973                           ; 1 bytes @ 0x0
   974                           
   975  0020                     ?___lwdiv:	
   976                           ; 1 bytes @ 0x0
   977                           
   978  0020                     ?___lmul:	
   979                           ; 2 bytes @ 0x0
   980                           
   981  0020                     DS_Rest@flag:	
   982                           ; 4 bytes @ 0x0
   983                           
   984  0020                     ___lwdiv@divisor:	
   985                           ; 1 bytes @ 0x0
   986                           
   987  0020                     ___lmul@multiplier:	
   988                           ; 2 bytes @ 0x0
   989                           
   990                           
   991                           ; 4 bytes @ 0x0
   992  0020                     	ds	1
   993  0021                     DS_Write@command:	
   994                           
   995                           ; 1 bytes @ 0x1
   996  0021                     	ds	1
   997  0022                     DS_Write@i:	
   998  0022                     DS_Read@temp:	
   999                           ; 1 bytes @ 0x2
  1000                           
  1001  0022                     ___lwdiv@dividend:	
  1002                           ; 1 bytes @ 0x2
  1003                           
  1004                           
  1005                           ; 2 bytes @ 0x2
  1006  0022                     	ds	1
  1007  0023                     ??_DS_Convert:	
  1008  0023                     DS_Read@value:	
  1009                           ; 1 bytes @ 0x3
  1010                           
  1011                           
  1012                           ; 1 bytes @ 0x3
  1013  0023                     	ds	1
  1014  0024                     ??___lwdiv:	
  1015  0024                     DS_Read@i:	
  1016                           ; 1 bytes @ 0x4
  1017                           
  1018  0024                     ___lmul@multiplicand:	
  1019                           ; 1 bytes @ 0x4
  1020                           
  1021                           
  1022                           ; 4 bytes @ 0x4
  1023  0024                     	ds	1
  1024  0025                     ___lwdiv@quotient:	
  1025                           
  1026                           ; 2 bytes @ 0x5
  1027  0025                     	ds	2
  1028  0027                     ___lwdiv@counter:	
  1029                           
  1030                           ; 1 bytes @ 0x7
  1031  0027                     	ds	1
  1032  0028                     ??___lmul:	
  1033  0028                     ?___lwmod:	
  1034                           ; 1 bytes @ 0x8
  1035                           
  1036  0028                     ___lwmod@divisor:	
  1037                           ; 2 bytes @ 0x8
  1038                           
  1039  0028                     ___lmul@product:	
  1040                           ; 2 bytes @ 0x8
  1041                           
  1042                           
  1043                           ; 4 bytes @ 0x8
  1044  0028                     	ds	2
  1045  002A                     ___lwmod@dividend:	
  1046                           
  1047                           ; 2 bytes @ 0xA
  1048  002A                     	ds	2
  1049  002C                     ??___lwmod:	
  1050  002C                     ?___lldiv:	
  1051                           ; 1 bytes @ 0xC
  1052                           
  1053  002C                     ___lldiv@divisor:	
  1054                           ; 4 bytes @ 0xC
  1055                           
  1056                           
  1057                           ; 4 bytes @ 0xC
  1058  002C                     	ds	1
  1059  002D                     ___lwmod@counter:	
  1060                           
  1061                           ; 1 bytes @ 0xD
  1062  002D                     	ds	3
  1063  0030                     ___lldiv@dividend:	
  1064                           
  1065                           ; 4 bytes @ 0x10
  1066  0030                     	ds	4
  1067  0034                     ??___lldiv:	
  1068                           
  1069                           ; 1 bytes @ 0x14
  1070  0034                     	ds	1
  1071  0035                     ___lldiv@quotient:	
  1072                           
  1073                           ; 4 bytes @ 0x15
  1074  0035                     	ds	4
  1075  0039                     ___lldiv@counter:	
  1076                           
  1077                           ; 1 bytes @ 0x19
  1078  0039                     	ds	1
  1079  003A                     ?_DS_GetTemp:	
  1080                           
  1081                           ; 2 bytes @ 0x1A
  1082  003A                     	ds	2
  1083  003C                     ??_DS_GetTemp:	
  1084                           
  1085                           ; 1 bytes @ 0x1C
  1086  003C                     	ds	4
  1087  0040                     DS_GetTemp@ds_th:	
  1088                           
  1089                           ; 1 bytes @ 0x20
  1090  0040                     	ds	1
  1091  0041                     DS_GetTemp@ds_tl:	
  1092                           
  1093                           ; 1 bytes @ 0x21
  1094  0041                     	ds	2
  1095  0043                     DS_GetTemp@ds_rs1:	
  1096                           
  1097                           ; 1 bytes @ 0x23
  1098  0043                     	ds	1
  1099  0044                     DS_GetTemp@ds_rs2:	
  1100                           
  1101                           ; 1 bytes @ 0x24
  1102  0044                     	ds	1
  1103  0045                     DS_GetTemp@ds_rs3:	
  1104                           
  1105                           ; 1 bytes @ 0x25
  1106  0045                     	ds	1
  1107  0046                     DS_GetTemp@ds_crc:	
  1108                           
  1109                           ; 1 bytes @ 0x26
  1110  0046                     	ds	1
  1111  0047                     DS_GetTemp@temp:	
  1112                           
  1113                           ; 1 bytes @ 0x27
  1114  0047                     	ds	1
  1115  0048                     DS_GetTemp@ds_low:	
  1116                           
  1117                           ; 1 bytes @ 0x28
  1118  0048                     	ds	1
  1119  0049                     DS_GetTemp@ds_hight:	
  1120                           
  1121                           ; 1 bytes @ 0x29
  1122  0049                     	ds	1
  1123  004A                     DS_GetTemp@ret:	
  1124                           
  1125                           ; 2 bytes @ 0x2A
  1126  004A                     	ds	2
  1127  004C                     ??_main:	
  1128                           
  1129                           ; 1 bytes @ 0x2C
  1130  004C                     	ds	2
  1131  004E                     main@temp:	
  1132                           
  1133                           ; 2 bytes @ 0x2E
  1134  004E                     	ds	2
  1135                           
  1136                           	psect	maintext
  1137  02C8                     __pmaintext:	
  1138 ;;
  1139 ;;Main: autosize = 0, tempsize = 2, incstack = 0, save=0
  1140 ;;
  1141 ;; *************** function _main *****************
  1142 ;; Defined at:
  1143 ;;		line 50 in file "main.c"
  1144 ;; Parameters:    Size  Location     Type
  1145 ;;		None
  1146 ;; Auto vars:     Size  Location     Type
  1147 ;;  temp            2   46[BANK0 ] unsigned int 
  1148 ;; Return value:  Size  Location     Type
  1149 ;;                  1    wreg      void 
  1150 ;; Registers used:
  1151 ;;		wreg, status,2, status,0, pclath, cstack
  1152 ;; Tracked objects:
  1153 ;;		On entry : B1F/0
  1154 ;;		On exit  : 0/0
  1155 ;;		Unchanged: 0/0
  1156 ;; Data sizes:     COMMON   BANK0   BANK1
  1157 ;;      Params:         0       0       0
  1158 ;;      Locals:         0       2       0
  1159 ;;      Temps:          0       2       0
  1160 ;;      Totals:         0       4       0
  1161 ;;Total ram usage:        4 bytes
  1162 ;; Hardware stack levels required when called:    5
  1163 ;; This function calls:
  1164 ;;		_DS_Convert
  1165 ;;		_DS_GetTemp
  1166 ;;		_FOSC_Init
  1167 ;;		_PORT_Init
  1168 ;;		_TIME0_Init
  1169 ;;		___lwdiv
  1170 ;;		___lwmod
  1171 ;; This function is called by:
  1172 ;;		Startup code after reset
  1173 ;; This function uses a non-reentrant model
  1174 ;;
  1175                           
  1176                           
  1177                           ;psect for function _main
  1178  02C8                     _main:	
  1179  02C8                     l1494:	
  1180                           ;incstack = 0
  1181                           ; Regs used in _main: [wreg+status,2+status,0+pclath+cstack]
  1182                           
  1183                           
  1184                           ;main.c: 52:     FOSC_Init();
  1185  02C8  3185  2554  3182   	fcall	_FOSC_Init
  1186  02CB                     l1496:	
  1187                           
  1188                           ;main.c: 53:     PORT_Init();
  1189  02CB  3185  254D  3182   	fcall	_PORT_Init
  1190  02CE                     l1498:	
  1191                           
  1192                           ;main.c: 54:     TIME0_Init();
  1193  02CE  3185  2530  3182   	fcall	_TIME0_Init
  1194  02D1                     l1500:	
  1195  02D1                     l1502:	
  1196                           
  1197                           ;main.c: 60:         DS_Convert();
  1198  02D1  3185  2517  3182   	fcall	_DS_Convert
  1199  02D4                     l1504:	
  1200                           
  1201                           ;main.c: 61:         GIE = 0;
  1202  02D4  138B               	bcf	11,7	;volatile
  1203  02D5                     l1506:	
  1204                           
  1205                           ;main.c: 62:         temp = DS_GetTemp();
  1206  02D5  3182  221E  3182   	fcall	_DS_GetTemp
  1207  02D8  0020               	movlb	0	; select bank0
  1208  02D9  083B               	movf	?_DS_GetTemp+1,w
  1209  02DA  00CF               	movwf	main@temp+1
  1210  02DB  083A               	movf	?_DS_GetTemp,w
  1211  02DC  00CE               	movwf	main@temp
  1212  02DD                     l1508:	
  1213                           
  1214                           ;main.c: 66:         ds[0] = (temp / 1000) % 10;
  1215  02DD  300A               	movlw	10
  1216  02DE  00A8               	movwf	___lwmod@divisor
  1217  02DF  3000               	movlw	0
  1218  02E0  00A9               	movwf	___lwmod@divisor+1
  1219  02E1  30E8               	movlw	232
  1220  02E2  00A0               	movwf	___lwdiv@divisor
  1221  02E3  3003               	movlw	3
  1222  02E4  00A1               	movwf	___lwdiv@divisor+1
  1223  02E5  084F               	movf	main@temp+1,w
  1224  02E6  00A3               	movwf	___lwdiv@dividend+1
  1225  02E7  084E               	movf	main@temp,w
  1226  02E8  00A2               	movwf	___lwdiv@dividend
  1227  02E9  3183  23F3  3182   	fcall	___lwdiv
  1228  02EC  0020               	movlb	0	; select bank0
  1229  02ED  0821               	movf	?___lwdiv+1,w
  1230  02EE  00AB               	movwf	___lwmod@dividend+1
  1231  02EF  0820               	movf	?___lwdiv,w
  1232  02F0  00AA               	movwf	___lwmod@dividend
  1233  02F1  3184  2430  3182   	fcall	___lwmod
  1234  02F4  0020               	movlb	0	; select bank0
  1235  02F5  0828               	movf	?___lwmod,w
  1236  02F6  00CC               	movwf	??_main
  1237  02F7  084C               	movf	??_main,w
  1238  02F8  00D0               	movwf	_ds
  1239  02F9                     l1510:	
  1240                           
  1241                           ;main.c: 67:         ds[1] = (temp / 100) % 10;
  1242  02F9  300A               	movlw	10
  1243  02FA  00A8               	movwf	___lwmod@divisor
  1244  02FB  3000               	movlw	0
  1245  02FC  00A9               	movwf	___lwmod@divisor+1
  1246  02FD  3064               	movlw	100
  1247  02FE  00A0               	movwf	___lwdiv@divisor
  1248  02FF  3000               	movlw	0
  1249  0300  00A1               	movwf	___lwdiv@divisor+1
  1250  0301  084F               	movf	main@temp+1,w
  1251  0302  00A3               	movwf	___lwdiv@dividend+1
  1252  0303  084E               	movf	main@temp,w
  1253  0304  00A2               	movwf	___lwdiv@dividend
  1254  0305  3183  23F3  3182   	fcall	___lwdiv
  1255  0308  0020               	movlb	0	; select bank0
  1256  0309  0821               	movf	?___lwdiv+1,w
  1257  030A  00AB               	movwf	___lwmod@dividend+1
  1258  030B  0820               	movf	?___lwdiv,w
  1259  030C  00AA               	movwf	___lwmod@dividend
  1260  030D  3184  2430  3182   	fcall	___lwmod
  1261  0310  0020               	movlb	0	; select bank0
  1262  0311  0828               	movf	?___lwmod,w
  1263  0312  00CC               	movwf	??_main
  1264  0313  084C               	movf	??_main,w
  1265  0314  00D1               	movwf	_ds+1
  1266  0315                     l1512:	
  1267                           
  1268                           ;main.c: 68:         ds[2] = (temp / 10) % 10;;
  1269  0315  300A               	movlw	10
  1270  0316  00A8               	movwf	___lwmod@divisor
  1271  0317  3000               	movlw	0
  1272  0318  00A9               	movwf	___lwmod@divisor+1
  1273  0319  300A               	movlw	10
  1274  031A  00A0               	movwf	___lwdiv@divisor
  1275  031B  3000               	movlw	0
  1276  031C  00A1               	movwf	___lwdiv@divisor+1
  1277  031D  084F               	movf	main@temp+1,w
  1278  031E  00A3               	movwf	___lwdiv@dividend+1
  1279  031F  084E               	movf	main@temp,w
  1280  0320  00A2               	movwf	___lwdiv@dividend
  1281  0321  3183  23F3  3182   	fcall	___lwdiv
  1282  0324  0020               	movlb	0	; select bank0
  1283  0325  0821               	movf	?___lwdiv+1,w
  1284  0326  00AB               	movwf	___lwmod@dividend+1
  1285  0327  0820               	movf	?___lwdiv,w
  1286  0328  00AA               	movwf	___lwmod@dividend
  1287  0329  3184  2430  3182   	fcall	___lwmod
  1288  032C  0020               	movlb	0	; select bank0
  1289  032D  0828               	movf	?___lwmod,w
  1290  032E  00CC               	movwf	??_main
  1291  032F  084C               	movf	??_main,w
  1292  0330  00D2               	movwf	_ds+2
  1293  0331                     l1514:	
  1294                           
  1295                           ;main.c: 69:         ds[3] = temp % 10;;
  1296  0331  300A               	movlw	10
  1297  0332  00A8               	movwf	___lwmod@divisor
  1298  0333  3000               	movlw	0
  1299  0334  00A9               	movwf	___lwmod@divisor+1
  1300  0335  084F               	movf	main@temp+1,w
  1301  0336  00AB               	movwf	___lwmod@dividend+1
  1302  0337  084E               	movf	main@temp,w
  1303  0338  00AA               	movwf	___lwmod@dividend
  1304  0339  3184  2430  3182   	fcall	___lwmod
  1305  033C  0020               	movlb	0	; select bank0
  1306  033D  0828               	movf	?___lwmod,w
  1307  033E  00CC               	movwf	??_main
  1308  033F  084C               	movf	??_main,w
  1309  0340  00D3               	movwf	_ds+3
  1310  0341                     l1516:	
  1311                           
  1312                           ;main.c: 70:         GIE = 1;
  1313  0341  178B               	bsf	11,7	;volatile
  1314  0342                     l1518:	
  1315                           
  1316                           ;main.c: 72:         _delay((unsigned long)((200)*(4000000/4000.0)));
  1317  0342  3002               	movlw	2
  1318  0343  0020               	movlb	0	; select bank0
  1319  0344  00CD               	movwf	??_main+1
  1320  0345  3004               	movlw	4
  1321  0346  00CC               	movwf	??_main
  1322  0347  30BA               	movlw	186
  1323  0348                     u1677:	
  1324  0348  0B89               	decfsz	9,f
  1325  0349  2B48               	goto	u1677
  1326  034A  0BCC               	decfsz	??_main,f
  1327  034B  2B48               	goto	u1677
  1328  034C  0BCD               	decfsz	??_main+1,f
  1329  034D  2B48               	goto	u1677
  1330  034E  0000               	nop
  1331  034F  2AD1               	goto	l1502
  1332  0350  2860               	ljmp	start
  1333  0351                     __end_of_main:	
  1334                           
  1335                           	psect	text1
  1336  0430                     __ptext1:	
  1337 ;; *************** function ___lwmod *****************
  1338 ;; Defined at:
  1339 ;;		line 5 in file "C:\Program Files (x86)\Microchip\xc8\v2.10\pic\sources\c99\common\lwmod.c"
  1340 ;; Parameters:    Size  Location     Type
  1341 ;;  divisor         2    8[BANK0 ] unsigned int 
  1342 ;;  dividend        2   10[BANK0 ] unsigned int 
  1343 ;; Auto vars:     Size  Location     Type
  1344 ;;  counter         1   13[BANK0 ] unsigned char 
  1345 ;; Return value:  Size  Location     Type
  1346 ;;                  2    8[BANK0 ] unsigned int 
  1347 ;; Registers used:
  1348 ;;		wreg, status,2, status,0
  1349 ;; Tracked objects:
  1350 ;;		On entry : 0/0
  1351 ;;		On exit  : 0/0
  1352 ;;		Unchanged: 0/0
  1353 ;; Data sizes:     COMMON   BANK0   BANK1
  1354 ;;      Params:         0       4       0
  1355 ;;      Locals:         0       1       0
  1356 ;;      Temps:          0       1       0
  1357 ;;      Totals:         0       6       0
  1358 ;;Total ram usage:        6 bytes
  1359 ;; Hardware stack levels used:    1
  1360 ;; Hardware stack levels required when called:    3
  1361 ;; This function calls:
  1362 ;;		Nothing
  1363 ;; This function is called by:
  1364 ;;		_main
  1365 ;; This function uses a non-reentrant model
  1366 ;;
  1367                           
  1368                           
  1369                           ;psect for function ___lwmod
  1370  0430                     ___lwmod:	
  1371  0430                     l1444:	
  1372                           ;incstack = 0
  1373                           ; Regs used in ___lwmod: [wreg+status,2+status,0]
  1374                           
  1375  0430  0020               	movlb	0	; select bank0
  1376  0431  0828               	movf	___lwmod@divisor,w
  1377  0432  0429               	iorwf	___lwmod@divisor+1,w
  1378  0433  1903               	btfsc	3,2
  1379  0434  2C36               	goto	u1451
  1380  0435  2C37               	goto	u1450
  1381  0436                     u1451:	
  1382  0436  2C60               	goto	l1462
  1383  0437                     u1450:	
  1384  0437                     l1446:	
  1385  0437  01AD               	clrf	___lwmod@counter
  1386  0438  0AAD               	incf	___lwmod@counter,f
  1387  0439  2C43               	goto	l1452
  1388  043A                     l1448:	
  1389  043A  3001               	movlw	1
  1390  043B                     u1465:	
  1391  043B  35A8               	lslf	___lwmod@divisor,f
  1392  043C  0DA9               	rlf	___lwmod@divisor+1,f
  1393  043D  0B89               	decfsz	9,f
  1394  043E  2C3B               	goto	u1465
  1395  043F                     l1450:	
  1396  043F  3001               	movlw	1
  1397  0440  00AC               	movwf	??___lwmod
  1398  0441  082C               	movf	??___lwmod,w
  1399  0442  07AD               	addwf	___lwmod@counter,f
  1400  0443                     l1452:	
  1401  0443  1FA9               	btfss	___lwmod@divisor+1,7
  1402  0444  2C46               	goto	u1471
  1403  0445  2C47               	goto	u1470
  1404  0446                     u1471:	
  1405  0446  2C3A               	goto	l1448
  1406  0447                     u1470:	
  1407  0447                     l1454:	
  1408  0447  0829               	movf	___lwmod@divisor+1,w
  1409  0448  022B               	subwf	___lwmod@dividend+1,w
  1410  0449  1D03               	skipz
  1411  044A  2C4D               	goto	u1485
  1412  044B  0828               	movf	___lwmod@divisor,w
  1413  044C  022A               	subwf	___lwmod@dividend,w
  1414  044D                     u1485:	
  1415  044D  1C03               	skipc
  1416  044E  2C50               	goto	u1481
  1417  044F  2C51               	goto	u1480
  1418  0450                     u1481:	
  1419  0450  2C55               	goto	l1458
  1420  0451                     u1480:	
  1421  0451                     l1456:	
  1422  0451  0828               	movf	___lwmod@divisor,w
  1423  0452  02AA               	subwf	___lwmod@dividend,f
  1424  0453  0829               	movf	___lwmod@divisor+1,w
  1425  0454  3BAB               	subwfb	___lwmod@dividend+1,f
  1426  0455                     l1458:	
  1427  0455  3001               	movlw	1
  1428  0456                     u1495:	
  1429  0456  36A9               	lsrf	___lwmod@divisor+1,f
  1430  0457  0CA8               	rrf	___lwmod@divisor,f
  1431  0458  0B89               	decfsz	9,f
  1432  0459  2C56               	goto	u1495
  1433  045A                     l1460:	
  1434  045A  3001               	movlw	1
  1435  045B  02AD               	subwf	___lwmod@counter,f
  1436  045C  1D03               	btfss	3,2
  1437  045D  2C5F               	goto	u1501
  1438  045E  2C60               	goto	u1500
  1439  045F                     u1501:	
  1440  045F  2C47               	goto	l1454
  1441  0460                     u1500:	
  1442  0460                     l1462:	
  1443  0460  082B               	movf	___lwmod@dividend+1,w
  1444  0461  00A9               	movwf	?___lwmod+1
  1445  0462  082A               	movf	___lwmod@dividend,w
  1446  0463  00A8               	movwf	?___lwmod
  1447  0464                     l664:	
  1448  0464  0008               	return
  1449  0465                     __end_of___lwmod:	
  1450                           
  1451                           	psect	text2
  1452  03F3                     __ptext2:	
  1453 ;; *************** function ___lwdiv *****************
  1454 ;; Defined at:
  1455 ;;		line 5 in file "C:\Program Files (x86)\Microchip\xc8\v2.10\pic\sources\c99\common\lwdiv.c"
  1456 ;; Parameters:    Size  Location     Type
  1457 ;;  divisor         2    0[BANK0 ] unsigned int 
  1458 ;;  dividend        2    2[BANK0 ] unsigned int 
  1459 ;; Auto vars:     Size  Location     Type
  1460 ;;  quotient        2    5[BANK0 ] unsigned int 
  1461 ;;  counter         1    7[BANK0 ] unsigned char 
  1462 ;; Return value:  Size  Location     Type
  1463 ;;                  2    0[BANK0 ] unsigned int 
  1464 ;; Registers used:
  1465 ;;		wreg, status,2, status,0
  1466 ;; Tracked objects:
  1467 ;;		On entry : 0/0
  1468 ;;		On exit  : 0/0
  1469 ;;		Unchanged: 0/0
  1470 ;; Data sizes:     COMMON   BANK0   BANK1
  1471 ;;      Params:         0       4       0
  1472 ;;      Locals:         0       3       0
  1473 ;;      Temps:          0       1       0
  1474 ;;      Totals:         0       8       0
  1475 ;;Total ram usage:        8 bytes
  1476 ;; Hardware stack levels used:    1
  1477 ;; Hardware stack levels required when called:    3
  1478 ;; This function calls:
  1479 ;;		Nothing
  1480 ;; This function is called by:
  1481 ;;		_main
  1482 ;; This function uses a non-reentrant model
  1483 ;;
  1484                           
  1485                           
  1486                           ;psect for function ___lwdiv
  1487  03F3                     ___lwdiv:	
  1488  03F3                     l1418:	
  1489                           ;incstack = 0
  1490                           ; Regs used in ___lwdiv: [wreg+status,2+status,0]
  1491                           
  1492  03F3  0020               	movlb	0	; select bank0
  1493  03F4  01A5               	clrf	___lwdiv@quotient
  1494  03F5  01A6               	clrf	___lwdiv@quotient+1
  1495  03F6                     l1420:	
  1496  03F6  0820               	movf	___lwdiv@divisor,w
  1497  03F7  0421               	iorwf	___lwdiv@divisor+1,w
  1498  03F8  1903               	btfsc	3,2
  1499  03F9  2BFB               	goto	u1381
  1500  03FA  2BFC               	goto	u1380
  1501  03FB                     u1381:	
  1502  03FB  2C2B               	goto	l1440
  1503  03FC                     u1380:	
  1504  03FC                     l1422:	
  1505  03FC  01A7               	clrf	___lwdiv@counter
  1506  03FD  0AA7               	incf	___lwdiv@counter,f
  1507  03FE  2C08               	goto	l1428
  1508  03FF                     l1424:	
  1509  03FF  3001               	movlw	1
  1510  0400                     u1395:	
  1511  0400  35A0               	lslf	___lwdiv@divisor,f
  1512  0401  0DA1               	rlf	___lwdiv@divisor+1,f
  1513  0402  0B89               	decfsz	9,f
  1514  0403  2C00               	goto	u1395
  1515  0404                     l1426:	
  1516  0404  3001               	movlw	1
  1517  0405  00A4               	movwf	??___lwdiv
  1518  0406  0824               	movf	??___lwdiv,w
  1519  0407  07A7               	addwf	___lwdiv@counter,f
  1520  0408                     l1428:	
  1521  0408  1FA1               	btfss	___lwdiv@divisor+1,7
  1522  0409  2C0B               	goto	u1401
  1523  040A  2C0C               	goto	u1400
  1524  040B                     u1401:	
  1525  040B  2BFF               	goto	l1424
  1526  040C                     u1400:	
  1527  040C                     l1430:	
  1528  040C  3001               	movlw	1
  1529  040D                     u1415:	
  1530  040D  35A5               	lslf	___lwdiv@quotient,f
  1531  040E  0DA6               	rlf	___lwdiv@quotient+1,f
  1532  040F  0B89               	decfsz	9,f
  1533  0410  2C0D               	goto	u1415
  1534  0411  0821               	movf	___lwdiv@divisor+1,w
  1535  0412  0223               	subwf	___lwdiv@dividend+1,w
  1536  0413  1D03               	skipz
  1537  0414  2C17               	goto	u1425
  1538  0415  0820               	movf	___lwdiv@divisor,w
  1539  0416  0222               	subwf	___lwdiv@dividend,w
  1540  0417                     u1425:	
  1541  0417  1C03               	skipc
  1542  0418  2C1A               	goto	u1421
  1543  0419  2C1B               	goto	u1420
  1544  041A                     u1421:	
  1545  041A  2C20               	goto	l1436
  1546  041B                     u1420:	
  1547  041B                     l1432:	
  1548  041B  0820               	movf	___lwdiv@divisor,w
  1549  041C  02A2               	subwf	___lwdiv@dividend,f
  1550  041D  0821               	movf	___lwdiv@divisor+1,w
  1551  041E  3BA3               	subwfb	___lwdiv@dividend+1,f
  1552  041F                     l1434:	
  1553  041F  1425               	bsf	___lwdiv@quotient,0
  1554  0420                     l1436:	
  1555  0420  3001               	movlw	1
  1556  0421                     u1435:	
  1557  0421  36A1               	lsrf	___lwdiv@divisor+1,f
  1558  0422  0CA0               	rrf	___lwdiv@divisor,f
  1559  0423  0B89               	decfsz	9,f
  1560  0424  2C21               	goto	u1435
  1561  0425                     l1438:	
  1562  0425  3001               	movlw	1
  1563  0426  02A7               	subwf	___lwdiv@counter,f
  1564  0427  1D03               	btfss	3,2
  1565  0428  2C2A               	goto	u1441
  1566  0429  2C2B               	goto	u1440
  1567  042A                     u1441:	
  1568  042A  2C0C               	goto	l1430
  1569  042B                     u1440:	
  1570  042B                     l1440:	
  1571  042B  0826               	movf	___lwdiv@quotient+1,w
  1572  042C  00A1               	movwf	?___lwdiv+1
  1573  042D  0825               	movf	___lwdiv@quotient,w
  1574  042E  00A0               	movwf	?___lwdiv
  1575  042F                     l654:	
  1576  042F  0008               	return
  1577  0430                     __end_of___lwdiv:	
  1578                           
  1579                           	psect	text3
  1580  0530                     __ptext3:	
  1581 ;; *************** function _TIME0_Init *****************
  1582 ;; Defined at:
  1583 ;;		line 12 in file "main.c"
  1584 ;; Parameters:    Size  Location     Type
  1585 ;;		None
  1586 ;; Auto vars:     Size  Location     Type
  1587 ;;		None
  1588 ;; Return value:  Size  Location     Type
  1589 ;;                  1    wreg      void 
  1590 ;; Registers used:
  1591 ;;		wreg
  1592 ;; Tracked objects:
  1593 ;;		On entry : 0/0
  1594 ;;		On exit  : 0/0
  1595 ;;		Unchanged: 0/0
  1596 ;; Data sizes:     COMMON   BANK0   BANK1
  1597 ;;      Params:         0       0       0
  1598 ;;      Locals:         0       0       0
  1599 ;;      Temps:          0       0       0
  1600 ;;      Totals:         0       0       0
  1601 ;;Total ram usage:        0 bytes
  1602 ;; Hardware stack levels used:    1
  1603 ;; Hardware stack levels required when called:    3
  1604 ;; This function calls:
  1605 ;;		Nothing
  1606 ;; This function is called by:
  1607 ;;		_main
  1608 ;; This function uses a non-reentrant model
  1609 ;;
  1610                           
  1611                           
  1612                           ;psect for function _TIME0_Init
  1613  0530                     _TIME0_Init:	
  1614  0530                     l1342:	
  1615                           ;incstack = 0
  1616                           ; Regs used in _TIME0_Init: [wreg]
  1617                           
  1618                           
  1619                           ;main.c: 13:     GIE = 1;
  1620  0530  178B               	bsf	11,7	;volatile
  1621                           
  1622                           ;main.c: 14:     PEIE = 1;
  1623  0531  170B               	bsf	11,6	;volatile
  1624                           
  1625                           ;main.c: 15:     TMR0IE = 1;
  1626  0532  168B               	bsf	11,5	;volatile
  1627  0533                     l1344:	
  1628                           
  1629                           ;main.c: 17:     OPTION_REG = 0B10000111;
  1630  0533  3087               	movlw	135
  1631  0534  0021               	movlb	1	; select bank1
  1632  0535  0095               	movwf	21	;volatile
  1633  0536                     l1346:	
  1634                           
  1635                           ;main.c: 19:     TMR0IF = 0;
  1636  0536  110B               	bcf	11,2	;volatile
  1637                           
  1638                           ;main.c: 20:     TMR0 = 210;
  1639  0537  30D2               	movlw	210
  1640  0538  0020               	movlb	0	; select bank0
  1641  0539  0095               	movwf	21	;volatile
  1642  053A                     l29:	
  1643  053A  0008               	return
  1644  053B                     __end_of_TIME0_Init:	
  1645                           
  1646                           	psect	text4
  1647  054D                     __ptext4:	
  1648 ;; *************** function _PORT_Init *****************
  1649 ;; Defined at:
  1650 ;;		line 4 in file "../library/port.c"
  1651 ;; Parameters:    Size  Location     Type
  1652 ;;		None
  1653 ;; Auto vars:     Size  Location     Type
  1654 ;;		None
  1655 ;; Return value:  Size  Location     Type
  1656 ;;                  1    wreg      void 
  1657 ;; Registers used:
  1658 ;;		status,2, status,0, pclath, cstack
  1659 ;; Tracked objects:
  1660 ;;		On entry : 0/0
  1661 ;;		On exit  : 0/0
  1662 ;;		Unchanged: 0/0
  1663 ;; Data sizes:     COMMON   BANK0   BANK1
  1664 ;;      Params:         0       0       0
  1665 ;;      Locals:         0       0       0
  1666 ;;      Temps:          0       0       0
  1667 ;;      Totals:         0       0       0
  1668 ;;Total ram usage:        0 bytes
  1669 ;; Hardware stack levels used:    1
  1670 ;; Hardware stack levels required when called:    4
  1671 ;; This function calls:
  1672 ;;		_PORTA_Init
  1673 ;;		_PORTC_Init
  1674 ;; This function is called by:
  1675 ;;		_main
  1676 ;; This function uses a non-reentrant model
  1677 ;;
  1678                           
  1679                           
  1680                           ;psect for function _PORT_Init
  1681  054D                     _PORT_Init:	
  1682  054D                     l1366:	
  1683                           ;incstack = 0
  1684                           ; Regs used in _PORT_Init: [status,2+status,0+pclath+cstack]
  1685                           
  1686                           
  1687                           ;../library/port.c: 5:     PORTA_Init();
  1688  054D  3185  2544  3185   	fcall	_PORTA_Init
  1689                           
  1690                           ;../library/port.c: 6:     PORTC_Init();
  1691  0550  3185  253B  3185   	fcall	_PORTC_Init
  1692  0553                     l111:	
  1693  0553  0008               	return
  1694  0554                     __end_of_PORT_Init:	
  1695                           
  1696                           	psect	text5
  1697  053B                     __ptext5:	
  1698 ;; *************** function _PORTC_Init *****************
  1699 ;; Defined at:
  1700 ;;		line 16 in file "../library/port.c"
  1701 ;; Parameters:    Size  Location     Type
  1702 ;;		None
  1703 ;; Auto vars:     Size  Location     Type
  1704 ;;		None
  1705 ;; Return value:  Size  Location     Type
  1706 ;;                  1    wreg      void 
  1707 ;; Registers used:
  1708 ;;		status,2
  1709 ;; Tracked objects:
  1710 ;;		On entry : 0/0
  1711 ;;		On exit  : 0/0
  1712 ;;		Unchanged: 0/0
  1713 ;; Data sizes:     COMMON   BANK0   BANK1
  1714 ;;      Params:         0       0       0
  1715 ;;      Locals:         0       0       0
  1716 ;;      Temps:          0       0       0
  1717 ;;      Totals:         0       0       0
  1718 ;;Total ram usage:        0 bytes
  1719 ;; Hardware stack levels used:    1
  1720 ;; Hardware stack levels required when called:    3
  1721 ;; This function calls:
  1722 ;;		Nothing
  1723 ;; This function is called by:
  1724 ;;		_PORT_Init
  1725 ;; This function uses a non-reentrant model
  1726 ;;
  1727                           
  1728                           
  1729                           ;psect for function _PORTC_Init
  1730  053B                     _PORTC_Init:	
  1731  053B                     l1292:	
  1732                           ;incstack = 0
  1733                           ; Regs used in _PORTC_Init: [status,2]
  1734                           
  1735                           
  1736                           ;../library/port.c: 17:     PORTC = 0;
  1737  053B  0020               	movlb	0	; select bank0
  1738  053C  018E               	clrf	14	;volatile
  1739                           
  1740                           ;../library/port.c: 18:     LATC = 0;
  1741  053D  0022               	movlb	2	; select bank2
  1742  053E  018E               	clrf	14	;volatile
  1743                           
  1744                           ;../library/port.c: 19:     ANSELC = 0;
  1745  053F  0023               	movlb	3	; select bank3
  1746  0540  018E               	clrf	14	;volatile
  1747                           
  1748                           ;../library/port.c: 20:     TRISC = 0;
  1749  0541  0021               	movlb	1	; select bank1
  1750  0542  018E               	clrf	14	;volatile
  1751  0543                     l117:	
  1752  0543  0008               	return
  1753  0544                     __end_of_PORTC_Init:	
  1754                           
  1755                           	psect	text6
  1756  0544                     __ptext6:	
  1757 ;; *************** function _PORTA_Init *****************
  1758 ;; Defined at:
  1759 ;;		line 9 in file "../library/port.c"
  1760 ;; Parameters:    Size  Location     Type
  1761 ;;		None
  1762 ;; Auto vars:     Size  Location     Type
  1763 ;;		None
  1764 ;; Return value:  Size  Location     Type
  1765 ;;                  1    wreg      void 
  1766 ;; Registers used:
  1767 ;;		status,2
  1768 ;; Tracked objects:
  1769 ;;		On entry : 0/0
  1770 ;;		On exit  : 0/0
  1771 ;;		Unchanged: 0/0
  1772 ;; Data sizes:     COMMON   BANK0   BANK1
  1773 ;;      Params:         0       0       0
  1774 ;;      Locals:         0       0       0
  1775 ;;      Temps:          0       0       0
  1776 ;;      Totals:         0       0       0
  1777 ;;Total ram usage:        0 bytes
  1778 ;; Hardware stack levels used:    1
  1779 ;; Hardware stack levels required when called:    3
  1780 ;; This function calls:
  1781 ;;		Nothing
  1782 ;; This function is called by:
  1783 ;;		_PORT_Init
  1784 ;; This function uses a non-reentrant model
  1785 ;;
  1786                           
  1787                           
  1788                           ;psect for function _PORTA_Init
  1789  0544                     _PORTA_Init:	
  1790  0544                     l1290:	
  1791                           ;incstack = 0
  1792                           ; Regs used in _PORTA_Init: [status,2]
  1793                           
  1794                           
  1795                           ;../library/port.c: 10:     PORTA = 0;
  1796  0544  0020               	movlb	0	; select bank0
  1797  0545  018C               	clrf	12	;volatile
  1798                           
  1799                           ;../library/port.c: 11:     LATA = 0;
  1800  0546  0022               	movlb	2	; select bank2
  1801  0547  018C               	clrf	12	;volatile
  1802                           
  1803                           ;../library/port.c: 12:     ANSELA = 0;
  1804  0548  0023               	movlb	3	; select bank3
  1805  0549  018C               	clrf	12	;volatile
  1806                           
  1807                           ;../library/port.c: 13:     TRISA = 0;
  1808  054A  0021               	movlb	1	; select bank1
  1809  054B  018C               	clrf	12	;volatile
  1810  054C                     l114:	
  1811  054C  0008               	return
  1812  054D                     __end_of_PORTA_Init:	
  1813                           
  1814                           	psect	text7
  1815  0554                     __ptext7:	
  1816 ;; *************** function _FOSC_Init *****************
  1817 ;; Defined at:
  1818 ;;		line 3 in file "../library/fosc.c"
  1819 ;; Parameters:    Size  Location     Type
  1820 ;;		None
  1821 ;; Auto vars:     Size  Location     Type
  1822 ;;		None
  1823 ;; Return value:  Size  Location     Type
  1824 ;;                  1    wreg      void 
  1825 ;; Registers used:
  1826 ;;		wreg
  1827 ;; Tracked objects:
  1828 ;;		On entry : 0/0
  1829 ;;		On exit  : 0/0
  1830 ;;		Unchanged: 0/0
  1831 ;; Data sizes:     COMMON   BANK0   BANK1
  1832 ;;      Params:         0       0       0
  1833 ;;      Locals:         0       0       0
  1834 ;;      Temps:          0       0       0
  1835 ;;      Totals:         0       0       0
  1836 ;;Total ram usage:        0 bytes
  1837 ;; Hardware stack levels used:    1
  1838 ;; Hardware stack levels required when called:    3
  1839 ;; This function calls:
  1840 ;;		Nothing
  1841 ;; This function is called by:
  1842 ;;		_main
  1843 ;; This function uses a non-reentrant model
  1844 ;;
  1845                           
  1846                           
  1847                           ;psect for function _FOSC_Init
  1848  0554                     _FOSC_Init:	
  1849  0554                     l1364:	
  1850                           ;incstack = 0
  1851                           ; Regs used in _FOSC_Init: [wreg]
  1852                           
  1853                           
  1854                           ;../library/fosc.c: 4:     OSCCON = 0x68;
  1855  0554  3068               	movlw	104
  1856  0555  0021               	movlb	1	; select bank1
  1857  0556  0099               	movwf	25	;volatile
  1858  0557                     l224:	
  1859  0557  0008               	return
  1860  0558                     __end_of_FOSC_Init:	
  1861                           
  1862                           	psect	text8
  1863  021E                     __ptext8:	
  1864 ;; *************** function _DS_GetTemp *****************
  1865 ;; Defined at:
  1866 ;;		line 77 in file "../library/ds18b20.c"
  1867 ;; Parameters:    Size  Location     Type
  1868 ;;		None
  1869 ;; Auto vars:     Size  Location     Type
  1870 ;;  ret             2   42[BANK0 ] unsigned int 
  1871 ;;  ds_hight        1   41[BANK0 ] unsigned char 
  1872 ;;  ds_low          1   40[BANK0 ] unsigned char 
  1873 ;;  temp            1   39[BANK0 ] unsigned char 
  1874 ;;  ds_crc          1   38[BANK0 ] unsigned char 
  1875 ;;  ds_rs3          1   37[BANK0 ] unsigned char 
  1876 ;;  ds_rs2          1   36[BANK0 ] unsigned char 
  1877 ;;  ds_rs1          1   35[BANK0 ] unsigned char 
  1878 ;;  ds_rs0          1    0        unsigned char 
  1879 ;;  ds_tl           1   33[BANK0 ] unsigned char 
  1880 ;;  ds_th           1   32[BANK0 ] unsigned char 
  1881 ;; Return value:  Size  Location     Type
  1882 ;;                  2   26[BANK0 ] unsigned int 
  1883 ;; Registers used:
  1884 ;;		wreg, status,2, status,0, pclath, cstack
  1885 ;; Tracked objects:
  1886 ;;		On entry : 0/0
  1887 ;;		On exit  : 0/0
  1888 ;;		Unchanged: 0/0
  1889 ;; Data sizes:     COMMON   BANK0   BANK1
  1890 ;;      Params:         0       2       0
  1891 ;;      Locals:         0      12       0
  1892 ;;      Temps:          0       4       0
  1893 ;;      Totals:         0      18       0
  1894 ;;Total ram usage:       18 bytes
  1895 ;; Hardware stack levels used:    1
  1896 ;; Hardware stack levels required when called:    4
  1897 ;; This function calls:
  1898 ;;		_DS_Read
  1899 ;;		_DS_Rest
  1900 ;;		_DS_Write
  1901 ;;		___lldiv
  1902 ;;		___lmul
  1903 ;; This function is called by:
  1904 ;;		_main
  1905 ;; This function uses a non-reentrant model
  1906 ;;
  1907                           
  1908                           
  1909                           ;psect for function _DS_GetTemp
  1910  021E                     _DS_GetTemp:	
  1911  021E                     l1372:	
  1912                           ;incstack = 0
  1913                           ; Regs used in _DS_GetTemp: [wreg+status,2+status,0+pclath+cstack]
  1914                           
  1915                           
  1916                           ;../library/ds18b20.c: 79:     unsigned int ret = 0;
  1917  021E  0020               	movlb	0	; select bank0
  1918  021F  01CA               	clrf	DS_GetTemp@ret
  1919  0220  01CB               	clrf	DS_GetTemp@ret+1
  1920  0221  01C1               	clrf	DS_GetTemp@ds_tl
  1921  0222  01C0               	clrf	DS_GetTemp@ds_th
  1922  0223  01C9               	clrf	DS_GetTemp@ds_hight
  1923  0224  01C8               	clrf	DS_GetTemp@ds_low
  1924  0225  01C6               	clrf	DS_GetTemp@ds_crc
  1925  0226  01C5               	clrf	DS_GetTemp@ds_rs3
  1926  0227  01C4               	clrf	DS_GetTemp@ds_rs2
  1927  0228  01C3               	clrf	DS_GetTemp@ds_rs1
  1928  0229                     l1374:	
  1929                           
  1930                           ;../library/ds18b20.c: 85:     DS_Rest();
  1931  0229  3184  24F7  3182   	fcall	_DS_Rest
  1932  022C                     l1376:	
  1933                           
  1934                           ;../library/ds18b20.c: 86:     DS_Write(0xCC);
  1935  022C  30CC               	movlw	204
  1936  022D  3184  24CB  3182   	fcall	_DS_Write
  1937  0230                     l1378:	
  1938                           
  1939                           ;../library/ds18b20.c: 87:     DS_Write(0xBE);
  1940  0230  30BE               	movlw	190
  1941  0231  3184  24CB  3182   	fcall	_DS_Write
  1942  0234                     l1380:	
  1943                           
  1944                           ;../library/ds18b20.c: 90:     ds_low = DS_Read();
  1945  0234  3184  2499  3182   	fcall	_DS_Read
  1946  0237  0020               	movlb	0	; select bank0
  1947  0238  00BC               	movwf	??_DS_GetTemp
  1948  0239  083C               	movf	??_DS_GetTemp,w
  1949  023A  00C8               	movwf	DS_GetTemp@ds_low
  1950  023B                     l1382:	
  1951                           
  1952                           ;../library/ds18b20.c: 91:     ds_hight = DS_Read();
  1953  023B  3184  2499  3182   	fcall	_DS_Read
  1954  023E  0020               	movlb	0	; select bank0
  1955  023F  00BC               	movwf	??_DS_GetTemp
  1956  0240  083C               	movf	??_DS_GetTemp,w
  1957  0241  00C9               	movwf	DS_GetTemp@ds_hight
  1958  0242                     l1384:	
  1959  0242  3184  2499  3182   	fcall	_DS_Read
  1960  0245                     l1386:	
  1961  0245  3184  2499  3182   	fcall	_DS_Read
  1962  0248                     l1388:	
  1963  0248  3184  2499  3182   	fcall	_DS_Read
  1964  024B                     l1390:	
  1965  024B  3184  2499  3182   	fcall	_DS_Read
  1966  024E                     l1392:	
  1967  024E  3184  2499  3182   	fcall	_DS_Read
  1968  0251                     l1394:	
  1969  0251  3184  2499  3182   	fcall	_DS_Read
  1970  0254                     l1396:	
  1971  0254  3184  2499  3182   	fcall	_DS_Read
  1972  0257                     l1398:	
  1973                           
  1974                           ;../library/ds18b20.c: 100:     DS_Rest();
  1975  0257  3184  24F7  3182   	fcall	_DS_Rest
  1976  025A                     l1400:	
  1977                           
  1978                           ;../library/ds18b20.c: 111:     temp = ds_hight >> 3;
  1979  025A  0020               	movlb	0	; select bank0
  1980  025B  0849               	movf	DS_GetTemp@ds_hight,w
  1981  025C  00BC               	movwf	??_DS_GetTemp
  1982  025D  3003               	movlw	3
  1983  025E                     u1365:	
  1984  025E  36BC               	lsrf	??_DS_GetTemp,f
  1985  025F  0B89               	decfsz	9,f
  1986  0260  2A5E               	goto	u1365
  1987  0261  083C               	movf	??_DS_GetTemp,w
  1988  0262  00BD               	movwf	??_DS_GetTemp+1
  1989  0263  083D               	movf	??_DS_GetTemp+1,w
  1990  0264  00C7               	movwf	DS_GetTemp@temp
  1991  0265                     l1402:	
  1992                           
  1993                           ;../library/ds18b20.c: 112:     if(temp & 0x1F) {
  1994  0265  0847               	movf	DS_GetTemp@temp,w
  1995  0266  391F               	andlw	31
  1996  0267  1903               	btfsc	3,2
  1997  0268  2A6A               	goto	u1371
  1998  0269  2A6B               	goto	u1370
  1999  026A                     u1371:	
  2000  026A  2AAF               	goto	l1410
  2001  026B                     u1370:	
  2002  026B                     l1404:	
  2003                           
  2004                           ;../library/ds18b20.c: 113:         ret |= ds_hight;
  2005  026B  0849               	movf	DS_GetTemp@ds_hight,w
  2006  026C  00BC               	movwf	??_DS_GetTemp
  2007  026D  01BD               	clrf	??_DS_GetTemp+1
  2008  026E  083C               	movf	??_DS_GetTemp,w
  2009  026F  04CA               	iorwf	DS_GetTemp@ret,f
  2010  0270  083D               	movf	??_DS_GetTemp+1,w
  2011  0271  04CB               	iorwf	DS_GetTemp@ret+1,f
  2012                           
  2013                           ;../library/ds18b20.c: 114:         ret = (ret << 8) | ds_low;
  2014  0272  0848               	movf	DS_GetTemp@ds_low,w
  2015  0273  00BC               	movwf	??_DS_GetTemp
  2016  0274  01BD               	clrf	??_DS_GetTemp+1
  2017  0275  084A               	movf	DS_GetTemp@ret,w
  2018  0276  00BF               	movwf	??_DS_GetTemp+3
  2019  0277  01BE               	clrf	??_DS_GetTemp+2
  2020  0278  083C               	movf	??_DS_GetTemp,w
  2021  0279  043E               	iorwf	??_DS_GetTemp+2,w
  2022  027A  00CA               	movwf	DS_GetTemp@ret
  2023  027B  083D               	movf	??_DS_GetTemp+1,w
  2024  027C  043F               	iorwf	??_DS_GetTemp+3,w
  2025  027D  00CB               	movwf	DS_GetTemp@ret+1
  2026  027E                     l1406:	
  2027                           
  2028                           ;../library/ds18b20.c: 115:         ret = ~ret;
  2029  027E  09CA               	comf	DS_GetTemp@ret,f
  2030  027F  09CB               	comf	DS_GetTemp@ret+1,f
  2031                           
  2032                           ;../library/ds18b20.c: 116:         ret += 1;
  2033  0280  3001               	movlw	1
  2034  0281  07CA               	addwf	DS_GetTemp@ret,f
  2035  0282  3000               	movlw	0
  2036  0283  3DCB               	addwfc	DS_GetTemp@ret+1,f
  2037  0284                     l1408:	
  2038                           
  2039                           ;../library/ds18b20.c: 117:         ret = (unsigned long)ret * 625 / 100;
  2040  0284  3000               	movlw	0
  2041  0285  00AF               	movwf	___lldiv@divisor+3
  2042  0286  3000               	movlw	0
  2043  0287  00AE               	movwf	___lldiv@divisor+2
  2044  0288  3000               	movlw	0
  2045  0289  00AD               	movwf	___lldiv@divisor+1
  2046  028A  3064               	movlw	100
  2047  028B  00AC               	movwf	___lldiv@divisor
  2048  028C  084A               	movf	DS_GetTemp@ret,w
  2049  028D  00A0               	movwf	___lmul@multiplier
  2050  028E  084B               	movf	DS_GetTemp@ret+1,w
  2051  028F  00A1               	movwf	___lmul@multiplier+1
  2052  0290  01A2               	clrf	___lmul@multiplier+2
  2053  0291  01A3               	clrf	___lmul@multiplier+3
  2054  0292  3000               	movlw	0
  2055  0293  00A7               	movwf	___lmul@multiplicand+3
  2056  0294  3000               	movlw	0
  2057  0295  00A6               	movwf	___lmul@multiplicand+2
  2058  0296  3002               	movlw	2
  2059  0297  00A5               	movwf	___lmul@multiplicand+1
  2060  0298  3071               	movlw	113
  2061  0299  00A4               	movwf	___lmul@multiplicand
  2062  029A  3184  2465  3182   	fcall	___lmul
  2063  029D  0020               	movlb	0	; select bank0
  2064  029E  0823               	movf	?___lmul+3,w
  2065  029F  00B3               	movwf	___lldiv@dividend+3
  2066  02A0  0822               	movf	?___lmul+2,w
  2067  02A1  00B2               	movwf	___lldiv@dividend+2
  2068  02A2  0821               	movf	?___lmul+1,w
  2069  02A3  00B1               	movwf	___lldiv@dividend+1
  2070  02A4  0820               	movf	?___lmul,w
  2071  02A5  00B0               	movwf	___lldiv@dividend
  2072  02A6  3183  2351  3182   	fcall	___lldiv
  2073  02A9  0020               	movlb	0	; select bank0
  2074  02AA  082D               	movf	?___lldiv+1,w
  2075  02AB  00CB               	movwf	DS_GetTemp@ret+1
  2076  02AC  082C               	movf	?___lldiv,w
  2077  02AD  00CA               	movwf	DS_GetTemp@ret
  2078                           
  2079                           ;../library/ds18b20.c: 118:     }else {
  2080  02AE  2AC3               	goto	l1414
  2081  02AF                     l1410:	
  2082                           
  2083                           ;../library/ds18b20.c: 119:         ret |= ds_hight;
  2084  02AF  0849               	movf	DS_GetTemp@ds_hight,w
  2085  02B0  00BC               	movwf	??_DS_GetTemp
  2086  02B1  01BD               	clrf	??_DS_GetTemp+1
  2087  02B2  083C               	movf	??_DS_GetTemp,w
  2088  02B3  04CA               	iorwf	DS_GetTemp@ret,f
  2089  02B4  083D               	movf	??_DS_GetTemp+1,w
  2090  02B5  04CB               	iorwf	DS_GetTemp@ret+1,f
  2091                           
  2092                           ;../library/ds18b20.c: 120:         ret = (ret << 8) | ds_low;
  2093  02B6  0848               	movf	DS_GetTemp@ds_low,w
  2094  02B7  00BC               	movwf	??_DS_GetTemp
  2095  02B8  01BD               	clrf	??_DS_GetTemp+1
  2096  02B9  084A               	movf	DS_GetTemp@ret,w
  2097  02BA  00BF               	movwf	??_DS_GetTemp+3
  2098  02BB  01BE               	clrf	??_DS_GetTemp+2
  2099  02BC  083C               	movf	??_DS_GetTemp,w
  2100  02BD  043E               	iorwf	??_DS_GetTemp+2,w
  2101  02BE  00CA               	movwf	DS_GetTemp@ret
  2102  02BF  083D               	movf	??_DS_GetTemp+1,w
  2103  02C0  043F               	iorwf	??_DS_GetTemp+3,w
  2104  02C1  00CB               	movwf	DS_GetTemp@ret+1
  2105  02C2  2A84               	goto	l1408
  2106  02C3                     l1414:	
  2107                           
  2108                           ;../library/ds18b20.c: 124:     return ret;
  2109  02C3  084B               	movf	DS_GetTemp@ret+1,w
  2110  02C4  00BB               	movwf	?_DS_GetTemp+1
  2111  02C5  084A               	movf	DS_GetTemp@ret,w
  2112  02C6  00BA               	movwf	?_DS_GetTemp
  2113  02C7                     l85:	
  2114  02C7  0008               	return
  2115  02C8                     __end_of_DS_GetTemp:	
  2116                           
  2117                           	psect	text9
  2118  0465                     __ptext9:	
  2119 ;; *************** function ___lmul *****************
  2120 ;; Defined at:
  2121 ;;		line 15 in file "C:\Program Files (x86)\Microchip\xc8\v2.10\pic\sources\c99\common\Umul32.c"
  2122 ;; Parameters:    Size  Location     Type
  2123 ;;  multiplier      4    0[BANK0 ] unsigned long 
  2124 ;;  multiplicand    4    4[BANK0 ] unsigned long 
  2125 ;; Auto vars:     Size  Location     Type
  2126 ;;  product         4    8[BANK0 ] unsigned long 
  2127 ;; Return value:  Size  Location     Type
  2128 ;;                  4    0[BANK0 ] unsigned long 
  2129 ;; Registers used:
  2130 ;;		wreg, status,2, status,0
  2131 ;; Tracked objects:
  2132 ;;		On entry : 0/0
  2133 ;;		On exit  : 0/0
  2134 ;;		Unchanged: 0/0
  2135 ;; Data sizes:     COMMON   BANK0   BANK1
  2136 ;;      Params:         0       8       0
  2137 ;;      Locals:         0       4       0
  2138 ;;      Temps:          0       0       0
  2139 ;;      Totals:         0      12       0
  2140 ;;Total ram usage:       12 bytes
  2141 ;; Hardware stack levels used:    1
  2142 ;; Hardware stack levels required when called:    3
  2143 ;; This function calls:
  2144 ;;		Nothing
  2145 ;; This function is called by:
  2146 ;;		_DS_GetTemp
  2147 ;; This function uses a non-reentrant model
  2148 ;;
  2149                           
  2150                           
  2151                           ;psect for function ___lmul
  2152  0465                     ___lmul:	
  2153  0465                     l1304:	
  2154                           ;incstack = 0
  2155                           ; Regs used in ___lmul: [wreg+status,2+status,0]
  2156                           
  2157  0465  3000               	movlw	0
  2158  0466  0020               	movlb	0	; select bank0
  2159  0467  00AB               	movwf	___lmul@product+3
  2160  0468  3000               	movlw	0
  2161  0469  00AA               	movwf	___lmul@product+2
  2162  046A  3000               	movlw	0
  2163  046B  00A9               	movwf	___lmul@product+1
  2164  046C  3000               	movlw	0
  2165  046D  00A8               	movwf	___lmul@product
  2166  046E                     l1306:	
  2167  046E  1C20               	btfss	___lmul@multiplier,0
  2168  046F  2C71               	goto	u1241
  2169  0470  2C72               	goto	u1240
  2170  0471                     u1241:	
  2171  0471  2C7A               	goto	l1310
  2172  0472                     u1240:	
  2173  0472                     l1308:	
  2174  0472  0824               	movf	___lmul@multiplicand,w
  2175  0473  07A8               	addwf	___lmul@product,f
  2176  0474  0825               	movf	___lmul@multiplicand+1,w
  2177  0475  3DA9               	addwfc	___lmul@product+1,f
  2178  0476  0826               	movf	___lmul@multiplicand+2,w
  2179  0477  3DAA               	addwfc	___lmul@product+2,f
  2180  0478  0827               	movf	___lmul@multiplicand+3,w
  2181  0479  3DAB               	addwfc	___lmul@product+3,f
  2182  047A                     l1310:	
  2183  047A  3001               	movlw	1
  2184  047B                     u1255:	
  2185  047B  35A4               	lslf	___lmul@multiplicand,f
  2186  047C  0DA5               	rlf	___lmul@multiplicand+1,f
  2187  047D  0DA6               	rlf	___lmul@multiplicand+2,f
  2188  047E  0DA7               	rlf	___lmul@multiplicand+3,f
  2189  047F  0B89               	decfsz	9,f
  2190  0480  2C7B               	goto	u1255
  2191  0481                     l1312:	
  2192  0481  3001               	movlw	1
  2193  0482                     u1265:	
  2194  0482  36A3               	lsrf	___lmul@multiplier+3,f
  2195  0483  0CA2               	rrf	___lmul@multiplier+2,f
  2196  0484  0CA1               	rrf	___lmul@multiplier+1,f
  2197  0485  0CA0               	rrf	___lmul@multiplier,f
  2198  0486  0B89               	decfsz	9,f
  2199  0487  2C82               	goto	u1265
  2200  0488  0823               	movf	___lmul@multiplier+3,w
  2201  0489  0422               	iorwf	___lmul@multiplier+2,w
  2202  048A  0421               	iorwf	___lmul@multiplier+1,w
  2203  048B  0420               	iorwf	___lmul@multiplier,w
  2204  048C  1D03               	skipz
  2205  048D  2C8F               	goto	u1271
  2206  048E  2C90               	goto	u1270
  2207  048F                     u1271:	
  2208  048F  2C6E               	goto	l1306
  2209  0490                     u1270:	
  2210  0490                     l1314:	
  2211  0490  082B               	movf	___lmul@product+3,w
  2212  0491  00A3               	movwf	?___lmul+3
  2213  0492  082A               	movf	___lmul@product+2,w
  2214  0493  00A2               	movwf	?___lmul+2
  2215  0494  0829               	movf	___lmul@product+1,w
  2216  0495  00A1               	movwf	?___lmul+1
  2217  0496  0828               	movf	___lmul@product,w
  2218  0497  00A0               	movwf	?___lmul
  2219  0498                     l388:	
  2220  0498  0008               	return
  2221  0499                     __end_of___lmul:	
  2222                           
  2223                           	psect	text10
  2224  0351                     __ptext10:	
  2225 ;; *************** function ___lldiv *****************
  2226 ;; Defined at:
  2227 ;;		line 5 in file "C:\Program Files (x86)\Microchip\xc8\v2.10\pic\sources\c99\common\__lldiv.c"
  2228 ;; Parameters:    Size  Location     Type
  2229 ;;  divisor         4   12[BANK0 ] unsigned long 
  2230 ;;  dividend        4   16[BANK0 ] unsigned long 
  2231 ;; Auto vars:     Size  Location     Type
  2232 ;;  quotient        4   21[BANK0 ] unsigned long 
  2233 ;;  counter         1   25[BANK0 ] unsigned char 
  2234 ;; Return value:  Size  Location     Type
  2235 ;;                  4   12[BANK0 ] unsigned long 
  2236 ;; Registers used:
  2237 ;;		wreg, status,2, status,0
  2238 ;; Tracked objects:
  2239 ;;		On entry : 0/0
  2240 ;;		On exit  : 0/0
  2241 ;;		Unchanged: 0/0
  2242 ;; Data sizes:     COMMON   BANK0   BANK1
  2243 ;;      Params:         0       8       0
  2244 ;;      Locals:         0       5       0
  2245 ;;      Temps:          0       1       0
  2246 ;;      Totals:         0      14       0
  2247 ;;Total ram usage:       14 bytes
  2248 ;; Hardware stack levels used:    1
  2249 ;; Hardware stack levels required when called:    3
  2250 ;; This function calls:
  2251 ;;		Nothing
  2252 ;; This function is called by:
  2253 ;;		_DS_GetTemp
  2254 ;; This function uses a non-reentrant model
  2255 ;;
  2256                           
  2257                           
  2258                           ;psect for function ___lldiv
  2259  0351                     ___lldiv:	
  2260  0351                     l1318:	
  2261                           ;incstack = 0
  2262                           ; Regs used in ___lldiv: [wreg+status,2+status,0]
  2263                           
  2264  0351  3000               	movlw	0
  2265  0352  0020               	movlb	0	; select bank0
  2266  0353  00B8               	movwf	___lldiv@quotient+3
  2267  0354  3000               	movlw	0
  2268  0355  00B7               	movwf	___lldiv@quotient+2
  2269  0356  3000               	movlw	0
  2270  0357  00B6               	movwf	___lldiv@quotient+1
  2271  0358  3000               	movlw	0
  2272  0359  00B5               	movwf	___lldiv@quotient
  2273  035A  082F               	movf	___lldiv@divisor+3,w
  2274  035B  042E               	iorwf	___lldiv@divisor+2,w
  2275  035C  042D               	iorwf	___lldiv@divisor+1,w
  2276  035D  042C               	iorwf	___lldiv@divisor,w
  2277  035E  1903               	skipnz
  2278  035F  2B61               	goto	u1281
  2279  0360  2B62               	goto	u1280
  2280  0361                     u1281:	
  2281  0361  2BA3               	goto	l1338
  2282  0362                     u1280:	
  2283  0362                     l1320:	
  2284  0362  01B9               	clrf	___lldiv@counter
  2285  0363  0AB9               	incf	___lldiv@counter,f
  2286  0364  2B70               	goto	l1324
  2287  0365                     l1322:	
  2288  0365  3001               	movlw	1
  2289  0366                     u1295:	
  2290  0366  35AC               	lslf	___lldiv@divisor,f
  2291  0367  0DAD               	rlf	___lldiv@divisor+1,f
  2292  0368  0DAE               	rlf	___lldiv@divisor+2,f
  2293  0369  0DAF               	rlf	___lldiv@divisor+3,f
  2294  036A  0B89               	decfsz	9,f
  2295  036B  2B66               	goto	u1295
  2296  036C  3001               	movlw	1
  2297  036D  00B4               	movwf	??___lldiv
  2298  036E  0834               	movf	??___lldiv,w
  2299  036F  07B9               	addwf	___lldiv@counter,f
  2300  0370                     l1324:	
  2301  0370  1FAF               	btfss	___lldiv@divisor+3,7
  2302  0371  2B73               	goto	u1301
  2303  0372  2B74               	goto	u1300
  2304  0373                     u1301:	
  2305  0373  2B65               	goto	l1322
  2306  0374                     u1300:	
  2307  0374                     l1326:	
  2308  0374  3001               	movlw	1
  2309  0375                     u1315:	
  2310  0375  35B5               	lslf	___lldiv@quotient,f
  2311  0376  0DB6               	rlf	___lldiv@quotient+1,f
  2312  0377  0DB7               	rlf	___lldiv@quotient+2,f
  2313  0378  0DB8               	rlf	___lldiv@quotient+3,f
  2314  0379  0B89               	decfsz	9,f
  2315  037A  2B75               	goto	u1315
  2316  037B                     l1328:	
  2317  037B  082F               	movf	___lldiv@divisor+3,w
  2318  037C  0233               	subwf	___lldiv@dividend+3,w
  2319  037D  1D03               	skipz
  2320  037E  2B89               	goto	u1325
  2321  037F  082E               	movf	___lldiv@divisor+2,w
  2322  0380  0232               	subwf	___lldiv@dividend+2,w
  2323  0381  1D03               	skipz
  2324  0382  2B89               	goto	u1325
  2325  0383  082D               	movf	___lldiv@divisor+1,w
  2326  0384  0231               	subwf	___lldiv@dividend+1,w
  2327  0385  1D03               	skipz
  2328  0386  2B89               	goto	u1325
  2329  0387  082C               	movf	___lldiv@divisor,w
  2330  0388  0230               	subwf	___lldiv@dividend,w
  2331  0389                     u1325:	
  2332  0389  1C03               	skipc
  2333  038A  2B8C               	goto	u1321
  2334  038B  2B8D               	goto	u1320
  2335  038C                     u1321:	
  2336  038C  2B96               	goto	l1334
  2337  038D                     u1320:	
  2338  038D                     l1330:	
  2339  038D  082C               	movf	___lldiv@divisor,w
  2340  038E  02B0               	subwf	___lldiv@dividend,f
  2341  038F  082D               	movf	___lldiv@divisor+1,w
  2342  0390  3BB1               	subwfb	___lldiv@dividend+1,f
  2343  0391  082E               	movf	___lldiv@divisor+2,w
  2344  0392  3BB2               	subwfb	___lldiv@dividend+2,f
  2345  0393  082F               	movf	___lldiv@divisor+3,w
  2346  0394  3BB3               	subwfb	___lldiv@dividend+3,f
  2347  0395                     l1332:	
  2348  0395  1435               	bsf	___lldiv@quotient,0
  2349  0396                     l1334:	
  2350  0396  3001               	movlw	1
  2351  0397                     u1335:	
  2352  0397  36AF               	lsrf	___lldiv@divisor+3,f
  2353  0398  0CAE               	rrf	___lldiv@divisor+2,f
  2354  0399  0CAD               	rrf	___lldiv@divisor+1,f
  2355  039A  0CAC               	rrf	___lldiv@divisor,f
  2356  039B  0B89               	decfsz	9,f
  2357  039C  2B97               	goto	u1335
  2358  039D                     l1336:	
  2359  039D  3001               	movlw	1
  2360  039E  02B9               	subwf	___lldiv@counter,f
  2361  039F  1D03               	btfss	3,2
  2362  03A0  2BA2               	goto	u1341
  2363  03A1  2BA3               	goto	u1340
  2364  03A2                     u1341:	
  2365  03A2  2B74               	goto	l1326
  2366  03A3                     u1340:	
  2367  03A3                     l1338:	
  2368  03A3  0838               	movf	___lldiv@quotient+3,w
  2369  03A4  00AF               	movwf	?___lldiv+3
  2370  03A5  0837               	movf	___lldiv@quotient+2,w
  2371  03A6  00AE               	movwf	?___lldiv+2
  2372  03A7  0836               	movf	___lldiv@quotient+1,w
  2373  03A8  00AD               	movwf	?___lldiv+1
  2374  03A9  0835               	movf	___lldiv@quotient,w
  2375  03AA  00AC               	movwf	?___lldiv
  2376  03AB                     l410:	
  2377  03AB  0008               	return
  2378  03AC                     __end_of___lldiv:	
  2379                           
  2380                           	psect	text11
  2381  0499                     __ptext11:	
  2382 ;; *************** function _DS_Read *****************
  2383 ;; Defined at:
  2384 ;;		line 52 in file "../library/ds18b20.c"
  2385 ;; Parameters:    Size  Location     Type
  2386 ;;		None
  2387 ;; Auto vars:     Size  Location     Type
  2388 ;;  i               1    4[BANK0 ] unsigned char 
  2389 ;;  value           1    3[BANK0 ] unsigned char 
  2390 ;;  temp            1    2[BANK0 ] unsigned char 
  2391 ;; Return value:  Size  Location     Type
  2392 ;;                  1    wreg      unsigned char 
  2393 ;; Registers used:
  2394 ;;		wreg, status,2, status,0
  2395 ;; Tracked objects:
  2396 ;;		On entry : 0/0
  2397 ;;		On exit  : 0/0
  2398 ;;		Unchanged: 0/0
  2399 ;; Data sizes:     COMMON   BANK0   BANK1
  2400 ;;      Params:         0       0       0
  2401 ;;      Locals:         0       3       0
  2402 ;;      Temps:          0       2       0
  2403 ;;      Totals:         0       5       0
  2404 ;;Total ram usage:        5 bytes
  2405 ;; Hardware stack levels used:    1
  2406 ;; Hardware stack levels required when called:    3
  2407 ;; This function calls:
  2408 ;;		Nothing
  2409 ;; This function is called by:
  2410 ;;		_DS_GetTemp
  2411 ;; This function uses a non-reentrant model
  2412 ;;
  2413                           
  2414                           
  2415                           ;psect for function _DS_Read
  2416  0499                     _DS_Read:	
  2417  0499                     l1264:	
  2418                           ;incstack = 0
  2419                           ; Regs used in _DS_Read: [wreg+status,2+status,0]
  2420                           
  2421                           
  2422                           ;../library/ds18b20.c: 53:     unsigned char i, value, temp;;../library/ds18b20.c: 55:  
      +                             GIE = 0;
  2423  0499  138B               	bcf	11,7	;volatile
  2424  049A                     l1266:	
  2425                           
  2426                           ;../library/ds18b20.c: 56:     for(i = 0; i < 8; i++) {
  2427  049A  0020               	movlb	0	; select bank0
  2428  049B  01A4               	clrf	DS_Read@i
  2429  049C                     l75:	
  2430                           
  2431                           ;../library/ds18b20.c: 57:         TRISC4 = RC4 = 0;
  2432  049C  120E               	bcf	14,4	;volatile
  2433  049D  0021               	movlb	1	; select bank1
  2434  049E  120E               	bcf	14,4	;volatile
  2435  049F                     l1272:	
  2436                           
  2437                           ;../library/ds18b20.c: 58:         _delay((unsigned long)((10)*(4000000/4000000.0)));
  2438  049F  3003               	movlw	3
  2439  04A0                     u1687:	
  2440  04A0  0B89               	decfsz	9,f
  2441  04A1  2CA0               	goto	u1687
  2442  04A2  0000               	nop
  2443  04A3                     l1274:	
  2444                           
  2445                           ;../library/ds18b20.c: 59:         TRISC4 = 1;
  2446  04A3  0021               	movlb	1	; select bank1
  2447  04A4  160E               	bsf	14,4	;volatile
  2448                           
  2449                           ;../library/ds18b20.c: 60:         _delay((unsigned long)((10)*(4000000/4000000.0)));
  2450  04A5  3003               	movlw	3
  2451  04A6                     u1697:	
  2452  04A6  0B89               	decfsz	9,f
  2453  04A7  2CA6               	goto	u1697
  2454  04A8  0000               	nop
  2455  04A9                     l1276:	
  2456                           
  2457                           ;../library/ds18b20.c: 61:         temp = RC4;
  2458  04A9  3000               	movlw	0
  2459  04AA  0020               	movlb	0	; select bank0
  2460  04AB  1A0E               	btfsc	14,4	;volatile
  2461  04AC  3001               	movlw	1
  2462  04AD  00A2               	movwf	DS_Read@temp
  2463  04AE                     l1278:	
  2464                           
  2465                           ;../library/ds18b20.c: 62:         _delay((unsigned long)((50)*(4000000/4000000.0)));
  2466  04AE  3010               	movlw	16
  2467  04AF                     u1707:	
  2468  04AF  0B89               	decfsz	9,f
  2469  04B0  2CAF               	goto	u1707
  2470  04B1  3200               	nop2
  2471  04B2                     l1280:	
  2472                           
  2473                           ;../library/ds18b20.c: 63:         value = (value>>1) | (temp<<7);
  2474  04B2  0020               	movlb	0	; select bank0
  2475  04B3  0822               	movf	DS_Read@temp,w
  2476  04B4  00A0               	movwf	??_DS_Read
  2477  04B5  3007               	movlw	7
  2478  04B6                     u895:	
  2479  04B6  35A0               	lslf	??_DS_Read,f
  2480  04B7  0B89               	decfsz	9,f
  2481  04B8  2CB6               	goto	u895
  2482  04B9  3623               	lsrf	DS_Read@value,w
  2483  04BA  0420               	iorwf	??_DS_Read,w
  2484  04BB  00A1               	movwf	??_DS_Read+1
  2485  04BC  0821               	movf	??_DS_Read+1,w
  2486  04BD  00A3               	movwf	DS_Read@value
  2487  04BE                     l1282:	
  2488                           
  2489                           ;../library/ds18b20.c: 64:     }
  2490  04BE  3001               	movlw	1
  2491  04BF  00A0               	movwf	??_DS_Read
  2492  04C0  0820               	movf	??_DS_Read,w
  2493  04C1  07A4               	addwf	DS_Read@i,f
  2494  04C2                     l1284:	
  2495  04C2  3008               	movlw	8
  2496  04C3  0224               	subwf	DS_Read@i,w
  2497  04C4  1C03               	skipc
  2498  04C5  2CC7               	goto	u901
  2499  04C6  2CC8               	goto	u900
  2500  04C7                     u901:	
  2501  04C7  2C9C               	goto	l75
  2502  04C8                     u900:	
  2503  04C8                     l76:	
  2504                           
  2505                           ;../library/ds18b20.c: 65:     GIE = 1;
  2506  04C8  178B               	bsf	11,7	;volatile
  2507  04C9                     l1286:	
  2508                           
  2509                           ;../library/ds18b20.c: 66:     return value;
  2510  04C9  0823               	movf	DS_Read@value,w
  2511  04CA                     l77:	
  2512  04CA  0008               	return
  2513  04CB                     __end_of_DS_Read:	
  2514                           
  2515                           	psect	text12
  2516  0517                     __ptext12:	
  2517 ;; *************** function _DS_Convert *****************
  2518 ;; Defined at:
  2519 ;;		line 69 in file "../library/ds18b20.c"
  2520 ;; Parameters:    Size  Location     Type
  2521 ;;		None
  2522 ;; Auto vars:     Size  Location     Type
  2523 ;;		None
  2524 ;; Return value:  Size  Location     Type
  2525 ;;                  1    wreg      void 
  2526 ;; Registers used:
  2527 ;;		wreg, status,2, status,0, pclath, cstack
  2528 ;; Tracked objects:
  2529 ;;		On entry : 0/0
  2530 ;;		On exit  : 0/0
  2531 ;;		Unchanged: 0/0
  2532 ;; Data sizes:     COMMON   BANK0   BANK1
  2533 ;;      Params:         0       0       0
  2534 ;;      Locals:         0       0       0
  2535 ;;      Temps:          0       2       0
  2536 ;;      Totals:         0       2       0
  2537 ;;Total ram usage:        2 bytes
  2538 ;; Hardware stack levels used:    1
  2539 ;; Hardware stack levels required when called:    4
  2540 ;; This function calls:
  2541 ;;		_DS_Rest
  2542 ;;		_DS_Write
  2543 ;; This function is called by:
  2544 ;;		_main
  2545 ;; This function uses a non-reentrant model
  2546 ;;
  2547                           
  2548                           
  2549                           ;psect for function _DS_Convert
  2550  0517                     _DS_Convert:	
  2551  0517                     l1368:	
  2552                           ;incstack = 0
  2553                           ; Regs used in _DS_Convert: [wreg+status,2+status,0+pclath+cstack]
  2554                           
  2555                           
  2556                           ;../library/ds18b20.c: 71:     DS_Rest();
  2557  0517  3184  24F7  3185   	fcall	_DS_Rest
  2558                           
  2559                           ;../library/ds18b20.c: 72:     DS_Write(0xCC);
  2560  051A  30CC               	movlw	204
  2561  051B  3184  24CB  3185   	fcall	_DS_Write
  2562                           
  2563                           ;../library/ds18b20.c: 73:     DS_Write(0x44);
  2564  051E  3044               	movlw	68
  2565  051F  3184  24CB  3185   	fcall	_DS_Write
  2566  0522                     l1370:	
  2567                           
  2568                           ;../library/ds18b20.c: 74:     _delay((unsigned long)((750)*(4000000/4000.0)));
  2569  0522  3004               	movlw	4
  2570  0523  0020               	movlb	0	; select bank0
  2571  0524  00A4               	movwf	??_DS_Convert+1
  2572  0525  30CF               	movlw	207
  2573  0526  00A3               	movwf	??_DS_Convert
  2574  0527  3001               	movlw	1
  2575  0528                     u1717:	
  2576  0528  0B89               	decfsz	9,f
  2577  0529  2D28               	goto	u1717
  2578  052A  0BA3               	decfsz	??_DS_Convert,f
  2579  052B  2D28               	goto	u1717
  2580  052C  0BA4               	decfsz	??_DS_Convert+1,f
  2581  052D  2D28               	goto	u1717
  2582  052E  3200               	nop2
  2583  052F                     l80:	
  2584  052F  0008               	return
  2585  0530                     __end_of_DS_Convert:	
  2586                           
  2587                           	psect	text13
  2588  04CB                     __ptext13:	
  2589 ;; *************** function _DS_Write *****************
  2590 ;; Defined at:
  2591 ;;		line 36 in file "../library/ds18b20.c"
  2592 ;; Parameters:    Size  Location     Type
  2593 ;;  command         1    wreg     unsigned char 
  2594 ;; Auto vars:     Size  Location     Type
  2595 ;;  command         1    1[BANK0 ] unsigned char 
  2596 ;;  i               1    2[BANK0 ] unsigned char 
  2597 ;; Return value:  Size  Location     Type
  2598 ;;                  1    wreg      void 
  2599 ;; Registers used:
  2600 ;;		wreg, status,2, status,0
  2601 ;; Tracked objects:
  2602 ;;		On entry : 0/0
  2603 ;;		On exit  : 0/0
  2604 ;;		Unchanged: 0/0
  2605 ;; Data sizes:     COMMON   BANK0   BANK1
  2606 ;;      Params:         0       0       0
  2607 ;;      Locals:         0       2       0
  2608 ;;      Temps:          0       1       0
  2609 ;;      Totals:         0       3       0
  2610 ;;Total ram usage:        3 bytes
  2611 ;; Hardware stack levels used:    1
  2612 ;; Hardware stack levels required when called:    3
  2613 ;; This function calls:
  2614 ;;		Nothing
  2615 ;; This function is called by:
  2616 ;;		_DS_Convert
  2617 ;;		_DS_GetTemp
  2618 ;;		_DS_RAM_Write
  2619 ;; This function uses a non-reentrant model
  2620 ;;
  2621                           
  2622                           
  2623                           ;psect for function _DS_Write
  2624  04CB                     _DS_Write:	
  2625                           
  2626                           ;incstack = 0
  2627                           ; Regs used in _DS_Write: [wreg+status,2+status,0]
  2628                           ;DS_Write@command stored from wreg
  2629  04CB  0020               	movlb	0	; select bank0
  2630  04CC  00A1               	movwf	DS_Write@command
  2631  04CD                     l1246:	
  2632                           
  2633                           ;../library/ds18b20.c: 37:     unsigned char i;;../library/ds18b20.c: 39:     GIE = 0;
  2634  04CD  138B               	bcf	11,7	;volatile
  2635  04CE                     l1248:	
  2636                           
  2637                           ;../library/ds18b20.c: 40:     for(i = 0; i < 8; i++) {
  2638  04CE  01A2               	clrf	DS_Write@i
  2639  04CF                     l70:	
  2640                           
  2641                           ;../library/ds18b20.c: 41:         TRISC4 = RC4 = 0;
  2642  04CF  120E               	bcf	14,4	;volatile
  2643  04D0  0021               	movlb	1	; select bank1
  2644  04D1  120E               	bcf	14,4	;volatile
  2645                           
  2646                           ;../library/ds18b20.c: 42:         _delay((unsigned long)((5)*(4000000/4000000.0)));
  2647  04D2  3200               	nop2	;2 cycle nop
  2648  04D3  3200               	nop2	;2 cycle nop
  2649  04D4  0000               	nop
  2650                           
  2651                           ;../library/ds18b20.c: 43:         TRISC4 = command & 0x01;
  2652  04D5  0020               	movlb	0	; select bank0
  2653  04D6  1821               	btfsc	DS_Write@command,0
  2654  04D7  2CD9               	goto	u861
  2655  04D8  2CDC               	goto	u860
  2656  04D9                     u861:	
  2657  04D9  0021               	movlb	1	; select bank1
  2658  04DA  160E               	bsf	14,4	;volatile
  2659  04DB  2CDE               	goto	u874
  2660  04DC                     u860:	
  2661  04DC  0021               	movlb	1	; select bank1
  2662  04DD  120E               	bcf	14,4	;volatile
  2663  04DE                     u874:	
  2664  04DE                     l1254:	
  2665                           
  2666                           ;../library/ds18b20.c: 44:         _delay((unsigned long)((55)*(4000000/4000000.0)));
  2667  04DE  3012               	movlw	18
  2668  04DF                     u1727:	
  2669  04DF  0B89               	decfsz	9,f
  2670  04E0  2CDF               	goto	u1727
  2671  04E1  0000               	nop
  2672  04E2                     l1256:	
  2673                           
  2674                           ;../library/ds18b20.c: 45:         TRISC4 = 1;
  2675  04E2  0021               	movlb	1	; select bank1
  2676  04E3  160E               	bsf	14,4	;volatile
  2677                           
  2678                           ;../library/ds18b20.c: 46:         command >>= 1;
  2679  04E4  1003               	clrc
  2680  04E5  0020               	movlb	0	; select bank0
  2681  04E6  0CA1               	rrf	DS_Write@command,f
  2682  04E7                     l1258:	
  2683                           
  2684                           ;../library/ds18b20.c: 47:     }
  2685  04E7  3001               	movlw	1
  2686  04E8  00A0               	movwf	??_DS_Write
  2687  04E9  0820               	movf	??_DS_Write,w
  2688  04EA  07A2               	addwf	DS_Write@i,f
  2689  04EB                     l1260:	
  2690  04EB  3008               	movlw	8
  2691  04EC  0222               	subwf	DS_Write@i,w
  2692  04ED  1C03               	skipc
  2693  04EE  2CF0               	goto	u881
  2694  04EF  2CF1               	goto	u880
  2695  04F0                     u881:	
  2696  04F0  2CCF               	goto	l70
  2697  04F1                     u880:	
  2698  04F1                     l71:	
  2699                           
  2700                           ;../library/ds18b20.c: 48:     GIE = 1;
  2701  04F1  178B               	bsf	11,7	;volatile
  2702  04F2                     l1262:	
  2703                           
  2704                           ;../library/ds18b20.c: 49:     _delay((unsigned long)((65)*(4000000/4000000.0)));
  2705  04F2  3015               	movlw	21
  2706  04F3                     u1737:	
  2707  04F3  0B89               	decfsz	9,f
  2708  04F4  2CF3               	goto	u1737
  2709  04F5  3200               	nop2
  2710  04F6                     l72:	
  2711  04F6  0008               	return
  2712  04F7                     __end_of_DS_Write:	
  2713                           
  2714                           	psect	text14
  2715  04F7                     __ptext14:	
  2716 ;; *************** function _DS_Rest *****************
  2717 ;; Defined at:
  2718 ;;		line 19 in file "../library/ds18b20.c"
  2719 ;; Parameters:    Size  Location     Type
  2720 ;;		None
  2721 ;; Auto vars:     Size  Location     Type
  2722 ;;  flag            1    0[BANK0 ] unsigned char 
  2723 ;; Return value:  Size  Location     Type
  2724 ;;                  1    wreg      void 
  2725 ;; Registers used:
  2726 ;;		wreg, status,2, status,0
  2727 ;; Tracked objects:
  2728 ;;		On entry : 0/0
  2729 ;;		On exit  : 0/0
  2730 ;;		Unchanged: 0/0
  2731 ;; Data sizes:     COMMON   BANK0   BANK1
  2732 ;;      Params:         0       0       0
  2733 ;;      Locals:         0       1       0
  2734 ;;      Temps:          0       0       0
  2735 ;;      Totals:         0       1       0
  2736 ;;Total ram usage:        1 bytes
  2737 ;; Hardware stack levels used:    1
  2738 ;; Hardware stack levels required when called:    3
  2739 ;; This function calls:
  2740 ;;		Nothing
  2741 ;; This function is called by:
  2742 ;;		_DS_Convert
  2743 ;;		_DS_GetTemp
  2744 ;;		_DS_RAM_Write
  2745 ;; This function uses a non-reentrant model
  2746 ;;
  2747                           
  2748                           
  2749                           ;psect for function _DS_Rest
  2750  04F7                     _DS_Rest:	
  2751  04F7                     l1232:	
  2752                           ;incstack = 0
  2753                           ; Regs used in _DS_Rest: [wreg+status,2+status,0]
  2754                           
  2755                           
  2756                           ;../library/ds18b20.c: 20:     unsigned char flag = 1;
  2757  04F7  0020               	movlb	0	; select bank0
  2758  04F8  01A0               	clrf	DS_Rest@flag
  2759  04F9  0AA0               	incf	DS_Rest@flag,f
  2760                           
  2761                           ;../library/ds18b20.c: 22:     GIE = 0;
  2762  04FA  138B               	bcf	11,7	;volatile
  2763                           
  2764                           ;../library/ds18b20.c: 23:     while(flag) {
  2765  04FB  2D0D               	goto	l1242
  2766  04FC                     l64:	
  2767                           
  2768                           ;../library/ds18b20.c: 24:         TRISC4 = RC4 = 0;
  2769  04FC  120E               	bcf	14,4	;volatile
  2770  04FD  0021               	movlb	1	; select bank1
  2771  04FE  120E               	bcf	14,4	;volatile
  2772  04FF                     l1234:	
  2773                           
  2774                           ;../library/ds18b20.c: 25:         _delay((unsigned long)((480)*(4000000/4000000.0)));
  2775  04FF  30A0               	movlw	160
  2776  0500                     u1747:	
  2777  0500  0B89               	decfsz	9,f
  2778  0501  2D00               	goto	u1747
  2779  0502                     l1236:	
  2780                           
  2781                           ;../library/ds18b20.c: 26:         TRISC4 = 1;
  2782  0502  0021               	movlb	1	; select bank1
  2783  0503  160E               	bsf	14,4	;volatile
  2784                           
  2785                           ;../library/ds18b20.c: 27:         _delay((unsigned long)((60)*(4000000/4000000.0)));
  2786  0504  3014               	movlw	20
  2787  0505                     u1757:	
  2788  0505  0B89               	decfsz	9,f
  2789  0506  2D05               	goto	u1757
  2790  0507                     l1238:	
  2791                           
  2792                           ;../library/ds18b20.c: 28:         if(!RC4) {
  2793  0507  0020               	movlb	0	; select bank0
  2794  0508  1A0E               	btfsc	14,4	;volatile
  2795  0509  2D0B               	goto	u841
  2796  050A  2D0C               	goto	u840
  2797  050B                     u841:	
  2798  050B  2D0D               	goto	l1242
  2799  050C                     u840:	
  2800  050C                     l1240:	
  2801                           
  2802                           ;../library/ds18b20.c: 29:             flag = 0;
  2803  050C  01A0               	clrf	DS_Rest@flag
  2804  050D                     l1242:	
  2805                           
  2806                           ;../library/ds18b20.c: 23:     while(flag) {
  2807  050D  0820               	movf	DS_Rest@flag,w
  2808  050E  1D03               	btfss	3,2
  2809  050F  2D11               	goto	u851
  2810  0510  2D12               	goto	u850
  2811  0511                     u851:	
  2812  0511  2CFC               	goto	l64
  2813  0512                     u850:	
  2814  0512                     l66:	
  2815                           
  2816                           ;../library/ds18b20.c: 32:     GIE = 1;
  2817  0512  178B               	bsf	11,7	;volatile
  2818  0513                     l1244:	
  2819                           
  2820                           ;../library/ds18b20.c: 33:     _delay((unsigned long)((240)*(4000000/4000000.0)));
  2821  0513  3050               	movlw	80
  2822  0514                     u1767:	
  2823  0514  0B89               	decfsz	9,f
  2824  0515  2D14               	goto	u1767
  2825  0516                     l67:	
  2826  0516  0008               	return
  2827  0517                     __end_of_DS_Rest:	
  2828                           
  2829                           	psect	intentry
  2830  0004                     __pintentry:	
  2831 ;; *************** function _isr *****************
  2832 ;; Defined at:
  2833 ;;		line 23 in file "main.c"
  2834 ;; Parameters:    Size  Location     Type
  2835 ;;		None
  2836 ;; Auto vars:     Size  Location     Type
  2837 ;;		None
  2838 ;; Return value:  Size  Location     Type
  2839 ;;                  1    wreg      void 
  2840 ;; Registers used:
  2841 ;;		wreg, fsr0l, fsr0h, status,2, status,0, pclath, cstack
  2842 ;; Tracked objects:
  2843 ;;		On entry : 0/0
  2844 ;;		On exit  : 0/0
  2845 ;;		Unchanged: 0/0
  2846 ;; Data sizes:     COMMON   BANK0   BANK1
  2847 ;;      Params:         0       0       0
  2848 ;;      Locals:         0       0       0
  2849 ;;      Temps:          2       0       0
  2850 ;;      Totals:         2       0       0
  2851 ;;Total ram usage:        2 bytes
  2852 ;; Hardware stack levels used:    1
  2853 ;; Hardware stack levels required when called:    2
  2854 ;; This function calls:
  2855 ;;		_display_2seg_hc
  2856 ;; This function is called by:
  2857 ;;		Interrupt level 1
  2858 ;; This function uses a non-reentrant model
  2859 ;;
  2860                           
  2861  0004                     _isr:	
  2862                           
  2863                           ;incstack = 0
  2864  0004  147E               	bsf	int$flags,0	;set compiler interrupt flag (level 1)
  2865                           
  2866                           ; Regs used in _isr: [wreg-fsr0h+status,2+status,0+pclath+cstack]
  2867  0005  3180               	pagesel	$
  2868  0006                     i1l1466:	
  2869                           
  2870                           ;main.c: 24:     unsigned char static i = 1;;main.c: 26:     if(TMR0IF) {
  2871  0006  1D0B               	btfss	11,2	;volatile
  2872  0007  2809               	goto	u151_21
  2873  0008  280A               	goto	u151_20
  2874  0009                     u151_21:	
  2875  0009  285E               	goto	i1l44
  2876  000A                     u151_20:	
  2877  000A                     i1l1468:	
  2878                           
  2879                           ;main.c: 27:         if(i > 4) i = 1;
  2880  000A  3005               	movlw	5
  2881  000B  027A               	subwf	isr@i,w
  2882  000C  1C03               	skipc
  2883  000D  280F               	goto	u152_21
  2884  000E  2810               	goto	u152_20
  2885  000F                     u152_21:	
  2886  000F  2840               	goto	i1l1482
  2887  0010                     u152_20:	
  2888  0010                     i1l1470:	
  2889  0010  01FA               	clrf	isr@i
  2890  0011  0AFA               	incf	isr@i,f
  2891  0012  2840               	goto	i1l1482
  2892  0013                     i1l1472:	
  2893                           
  2894                           ;main.c: 31:                 display_2seg_hc(ds[0], 0, i);
  2895  0013  01F3               	clrf	display_2seg_hc@dp
  2896  0014  087A               	movf	isr@i,w
  2897  0015  00F8               	movwf	??_isr
  2898  0016  0878               	movf	??_isr,w
  2899  0017  00F4               	movwf	display_2seg_hc@seg
  2900  0018  0020               	movlb	0	; select bank0
  2901  0019  0850               	movf	_ds,w
  2902  001A  3183  23AC  3180   	fcall	_display_2seg_hc
  2903                           
  2904                           ;main.c: 32:                 break;
  2905  001D  2856               	goto	i1l1484
  2906  001E                     i1l1474:	
  2907                           
  2908                           ;main.c: 34:                 display_2seg_hc(ds[1], 1, i);
  2909  001E  01F3               	clrf	display_2seg_hc@dp
  2910  001F  0AF3               	incf	display_2seg_hc@dp,f
  2911  0020  087A               	movf	isr@i,w
  2912  0021  00F8               	movwf	??_isr
  2913  0022  0878               	movf	??_isr,w
  2914  0023  00F4               	movwf	display_2seg_hc@seg
  2915  0024  0020               	movlb	0	; select bank0
  2916  0025  0851               	movf	_ds+1,w
  2917  0026  3183  23AC  3180   	fcall	_display_2seg_hc
  2918                           
  2919                           ;main.c: 35:                 break;
  2920  0029  2856               	goto	i1l1484
  2921  002A                     i1l1476:	
  2922                           
  2923                           ;main.c: 37:                 display_2seg_hc(ds[2], 0, i);
  2924  002A  01F3               	clrf	display_2seg_hc@dp
  2925  002B  087A               	movf	isr@i,w
  2926  002C  00F8               	movwf	??_isr
  2927  002D  0878               	movf	??_isr,w
  2928  002E  00F4               	movwf	display_2seg_hc@seg
  2929  002F  0020               	movlb	0	; select bank0
  2930  0030  0852               	movf	_ds+2,w
  2931  0031  3183  23AC  3180   	fcall	_display_2seg_hc
  2932                           
  2933                           ;main.c: 38:                 break;
  2934  0034  2856               	goto	i1l1484
  2935  0035                     i1l1478:	
  2936                           
  2937                           ;main.c: 40:                 display_2seg_hc(ds[3], 0, i);
  2938  0035  01F3               	clrf	display_2seg_hc@dp
  2939  0036  087A               	movf	isr@i,w
  2940  0037  00F8               	movwf	??_isr
  2941  0038  0878               	movf	??_isr,w
  2942  0039  00F4               	movwf	display_2seg_hc@seg
  2943  003A  0020               	movlb	0	; select bank0
  2944  003B  0853               	movf	_ds+3,w
  2945  003C  3183  23AC  3180   	fcall	_display_2seg_hc
  2946                           
  2947                           ;main.c: 41:                 break;
  2948  003F  2856               	goto	i1l1484
  2949  0040                     i1l1482:	
  2950  0040  087A               	movf	isr@i,w
  2951  0041  00F8               	movwf	??_isr
  2952  0042  01F9               	clrf	??_isr+1
  2953                           
  2954                           ; Switch on 2 bytes has been partitioned into a top level switch of size 1, and 1 sub-sw
      +                          itches
  2955                           ; Switch size 1, requested type "simple"
  2956                           ; Number of cases is 1, Range of values is 0 to 0
  2957                           ; switch strategies available:
  2958                           ; Name         Instructions Cycles
  2959                           ; simple_byte            4     3 (average)
  2960                           ; direct_byte            8     6 (fixed)
  2961                           ; jumptable            260     6 (fixed)
  2962                           ;	Chosen strategy is simple_byte
  2963  0043  0879               	movf	??_isr+1,w
  2964  0044  3A00               	xorlw	0	; case 0
  2965  0045  1903               	skipnz
  2966  0046  2848               	goto	i1l1632
  2967  0047  2856               	goto	i1l1484
  2968  0048                     i1l1632:	
  2969                           
  2970                           ; Switch size 1, requested type "simple"
  2971                           ; Number of cases is 4, Range of values is 1 to 4
  2972                           ; switch strategies available:
  2973                           ; Name         Instructions Cycles
  2974                           ; simple_byte           13     7 (average)
  2975                           ; direct_byte           17     9 (fixed)
  2976                           ; jumptable            263     9 (fixed)
  2977                           ;	Chosen strategy is simple_byte
  2978  0048  0878               	movf	??_isr,w
  2979  0049  3A01               	xorlw	1	; case 1
  2980  004A  1903               	skipnz
  2981  004B  2813               	goto	i1l1472
  2982  004C  3A03               	xorlw	3	; case 2
  2983  004D  1903               	skipnz
  2984  004E  281E               	goto	i1l1474
  2985  004F  3A01               	xorlw	1	; case 3
  2986  0050  1903               	skipnz
  2987  0051  282A               	goto	i1l1476
  2988  0052  3A07               	xorlw	7	; case 4
  2989  0053  1903               	skipnz
  2990  0054  2835               	goto	i1l1478
  2991  0055  2856               	goto	i1l1484
  2992  0056                     i1l1484:	
  2993                           
  2994                           ;main.c: 44:         i++;
  2995  0056  3001               	movlw	1
  2996  0057  00F8               	movwf	??_isr
  2997  0058  0878               	movf	??_isr,w
  2998  0059  07FA               	addwf	isr@i,f
  2999  005A                     i1l1486:	
  3000                           
  3001                           ;main.c: 45:         TMR0 = 210;
  3002  005A  30D2               	movlw	210
  3003  005B  0020               	movlb	0	; select bank0
  3004  005C  0095               	movwf	21	;volatile
  3005  005D                     i1l1488:	
  3006                           
  3007                           ;main.c: 46:         TMR0IF = 0;
  3008  005D  110B               	bcf	11,2	;volatile
  3009  005E                     i1l44:	
  3010  005E  107E               	bcf	int$flags,0	;clear compiler interrupt flag (level 1)
  3011  005F  0009               	retfie
  3012  0060                     __end_of_isr:	
  3013                           
  3014                           	psect	text16
  3015  03AC                     __ptext16:	
  3016 ;; *************** function _display_2seg_hc *****************
  3017 ;; Defined at:
  3018 ;;		line 154 in file "../library/ledtube.c"
  3019 ;; Parameters:    Size  Location     Type
  3020 ;;  num             1    wreg     unsigned char 
  3021 ;;  dp              1    3[COMMON] unsigned char 
  3022 ;;  seg             1    4[COMMON] unsigned char 
  3023 ;; Auto vars:     Size  Location     Type
  3024 ;;  num             1    7[COMMON] unsigned char 
  3025 ;; Return value:  Size  Location     Type
  3026 ;;                  1    wreg      void 
  3027 ;; Registers used:
  3028 ;;		wreg, fsr0l, fsr0h, status,2, status,0, pclath, cstack
  3029 ;; Tracked objects:
  3030 ;;		On entry : 0/0
  3031 ;;		On exit  : 0/0
  3032 ;;		Unchanged: 0/0
  3033 ;; Data sizes:     COMMON   BANK0   BANK1
  3034 ;;      Params:         2       0       0
  3035 ;;      Locals:         1       0       0
  3036 ;;      Temps:          2       0       0
  3037 ;;      Totals:         5       0       0
  3038 ;;Total ram usage:        5 bytes
  3039 ;; Hardware stack levels used:    1
  3040 ;; Hardware stack levels required when called:    1
  3041 ;; This function calls:
  3042 ;;		_display_place
  3043 ;; This function is called by:
  3044 ;;		_isr
  3045 ;; This function uses a non-reentrant model
  3046 ;;
  3047                           
  3048                           
  3049                           ;psect for function _display_2seg_hc
  3050  03AC                     _display_2seg_hc:	
  3051                           
  3052                           ;incstack = 0
  3053                           ; Regs used in _display_2seg_hc: [wreg-fsr0h+status,2+status,0+pclath+cstack]
  3054                           ;display_2seg_hc@num stored from wreg
  3055  03AC  00F7               	movwf	display_2seg_hc@num
  3056  03AD                     i1l1348:	
  3057                           
  3058                           ;../library/ledtube.c: 157:     switch(seg) {
  3059  03AD  2BCA               	goto	i1l1352
  3060  03AE                     i1l195:	
  3061                           ;../library/ledtube.c: 158:         case 4:
  3062                           
  3063                           
  3064                           ;../library/ledtube.c: 159:                 TRISC5 = TRISC3 = 0;
  3065  03AE  0021               	movlb	1	; select bank1
  3066  03AF  118E               	bcf	14,3	;volatile
  3067  03B0  128E               	bcf	14,5	;volatile
  3068                           
  3069                           ;../library/ledtube.c: 160:                 LATC5 = 1; LATC3 = 1;
  3070  03B1  0022               	movlb	2	; select bank2
  3071  03B2  168E               	bsf	14,5	;volatile
  3072  03B3  158E               	bsf	14,3	;volatile
  3073                           
  3074                           ;../library/ledtube.c: 161:                 break;
  3075  03B4  2BE0               	goto	i1l1354
  3076  03B5                     i1l197:	
  3077                           ;../library/ledtube.c: 162:         case 3:
  3078                           
  3079                           
  3080                           ;../library/ledtube.c: 163:                 TRISC5 = TRISC3 = 0;
  3081  03B5  0021               	movlb	1	; select bank1
  3082  03B6  118E               	bcf	14,3	;volatile
  3083  03B7  128E               	bcf	14,5	;volatile
  3084                           
  3085                           ;../library/ledtube.c: 164:                 LATC5 = 0; LATC3 = 1;
  3086  03B8  0022               	movlb	2	; select bank2
  3087  03B9  128E               	bcf	14,5	;volatile
  3088  03BA  158E               	bsf	14,3	;volatile
  3089                           
  3090                           ;../library/ledtube.c: 165:                 break;
  3091  03BB  2BE0               	goto	i1l1354
  3092  03BC                     i1l198:	
  3093                           ;../library/ledtube.c: 166:         case 2:
  3094                           
  3095                           
  3096                           ;../library/ledtube.c: 167:                 TRISC5 = TRISC3 = 0;
  3097  03BC  0021               	movlb	1	; select bank1
  3098  03BD  118E               	bcf	14,3	;volatile
  3099  03BE  128E               	bcf	14,5	;volatile
  3100                           
  3101                           ;../library/ledtube.c: 168:                 LATC5 = 1; LATC3 = 0;
  3102  03BF  0022               	movlb	2	; select bank2
  3103  03C0  168E               	bsf	14,5	;volatile
  3104  03C1  118E               	bcf	14,3	;volatile
  3105                           
  3106                           ;../library/ledtube.c: 169:                 break;
  3107  03C2  2BE0               	goto	i1l1354
  3108  03C3                     i1l199:	
  3109                           ;../library/ledtube.c: 170:         case 1:
  3110                           
  3111                           
  3112                           ;../library/ledtube.c: 171:                 TRISC5 = TRISC3 = 0;
  3113  03C3  0021               	movlb	1	; select bank1
  3114  03C4  118E               	bcf	14,3	;volatile
  3115  03C5  128E               	bcf	14,5	;volatile
  3116                           
  3117                           ;../library/ledtube.c: 172:                 LATC5 = LATC3 = 0;
  3118  03C6  0022               	movlb	2	; select bank2
  3119  03C7  118E               	bcf	14,3	;volatile
  3120  03C8  128E               	bcf	14,5	;volatile
  3121                           
  3122                           ;../library/ledtube.c: 173:                 break;
  3123  03C9  2BE0               	goto	i1l1354
  3124  03CA                     i1l1352:	
  3125  03CA  0874               	movf	display_2seg_hc@seg,w
  3126  03CB  00F5               	movwf	??_display_2seg_hc
  3127  03CC  01F6               	clrf	??_display_2seg_hc+1
  3128                           
  3129                           ; Switch on 2 bytes has been partitioned into a top level switch of size 1, and 1 sub-sw
      +                          itches
  3130                           ; Switch size 1, requested type "simple"
  3131                           ; Number of cases is 1, Range of values is 0 to 0
  3132                           ; switch strategies available:
  3133                           ; Name         Instructions Cycles
  3134                           ; simple_byte            4     3 (average)
  3135                           ; direct_byte            8     6 (fixed)
  3136                           ; jumptable            260     6 (fixed)
  3137                           ;	Chosen strategy is simple_byte
  3138  03CD  0876               	movf	??_display_2seg_hc+1,w
  3139  03CE  3A00               	xorlw	0	; case 0
  3140  03CF  1903               	skipnz
  3141  03D0  2BD2               	goto	i1l1634
  3142  03D1  2BE0               	goto	i1l1354
  3143  03D2                     i1l1634:	
  3144                           
  3145                           ; Switch size 1, requested type "simple"
  3146                           ; Number of cases is 4, Range of values is 1 to 4
  3147                           ; switch strategies available:
  3148                           ; Name         Instructions Cycles
  3149                           ; simple_byte           13     7 (average)
  3150                           ; direct_byte           17     9 (fixed)
  3151                           ; jumptable            263     9 (fixed)
  3152                           ;	Chosen strategy is simple_byte
  3153  03D2  0875               	movf	??_display_2seg_hc,w
  3154  03D3  3A01               	xorlw	1	; case 1
  3155  03D4  1903               	skipnz
  3156  03D5  2BC3               	goto	i1l199
  3157  03D6  3A03               	xorlw	3	; case 2
  3158  03D7  1903               	skipnz
  3159  03D8  2BBC               	goto	i1l198
  3160  03D9  3A01               	xorlw	1	; case 3
  3161  03DA  1903               	skipnz
  3162  03DB  2BB5               	goto	i1l197
  3163  03DC  3A07               	xorlw	7	; case 4
  3164  03DD  1903               	skipnz
  3165  03DE  2BAE               	goto	i1l195
  3166  03DF  2BE0               	goto	i1l1354
  3167  03E0                     i1l1354:	
  3168                           
  3169                           ;../library/ledtube.c: 176:     display_place(num);
  3170  03E0  0877               	movf	display_2seg_hc@num,w
  3171  03E1  3180  206C  3183   	fcall	_display_place
  3172  03E4                     i1l1356:	
  3173                           
  3174                           ;../library/ledtube.c: 179:     if(dp) {
  3175  03E4  0873               	movf	display_2seg_hc@dp,w
  3176  03E5  1903               	btfsc	3,2
  3177  03E6  2BE8               	goto	u135_21
  3178  03E7  2BE9               	goto	u135_20
  3179  03E8                     u135_21:	
  3180  03E8  2BEE               	goto	i1l200
  3181  03E9                     u135_20:	
  3182  03E9                     i1l1358:	
  3183                           
  3184                           ;../library/ledtube.c: 180:         TRISA4 = 0;
  3185  03E9  0021               	movlb	1	; select bank1
  3186  03EA  120C               	bcf	12,4	;volatile
  3187                           
  3188                           ;../library/ledtube.c: 181:         LATA4 = 0;
  3189  03EB  0022               	movlb	2	; select bank2
  3190  03EC  120C               	bcf	12,4	;volatile
  3191                           
  3192                           ;../library/ledtube.c: 182:     }else {
  3193  03ED  2BF2               	goto	i1l202
  3194  03EE                     i1l200:	
  3195                           
  3196                           ;../library/ledtube.c: 183:         TRISA4 = 1;
  3197  03EE  0021               	movlb	1	; select bank1
  3198  03EF  160C               	bsf	12,4	;volatile
  3199                           
  3200                           ;../library/ledtube.c: 184:         LATA4 = 0;
  3201  03F0  0022               	movlb	2	; select bank2
  3202  03F1  120C               	bcf	12,4	;volatile
  3203  03F2                     i1l202:	
  3204  03F2  0008               	return
  3205  03F3                     __end_of_display_2seg_hc:	
  3206                           
  3207                           	psect	text17
  3208  006C                     __ptext17:	
  3209 ;; *************** function _display_place *****************
  3210 ;; Defined at:
  3211 ;;		line 43 in file "../library/ledtube.c"
  3212 ;; Parameters:    Size  Location     Type
  3213 ;;  num             1    wreg     unsigned char 
  3214 ;; Auto vars:     Size  Location     Type
  3215 ;;  num             1    2[COMMON] unsigned char 
  3216 ;; Return value:  Size  Location     Type
  3217 ;;                  1    wreg      void 
  3218 ;; Registers used:
  3219 ;;		wreg, fsr0l, fsr0h, status,2, status,0
  3220 ;; Tracked objects:
  3221 ;;		On entry : 0/0
  3222 ;;		On exit  : 0/0
  3223 ;;		Unchanged: 0/0
  3224 ;; Data sizes:     COMMON   BANK0   BANK1
  3225 ;;      Params:         0       0       0
  3226 ;;      Locals:         1       0       0
  3227 ;;      Temps:          2       0       0
  3228 ;;      Totals:         3       0       0
  3229 ;;Total ram usage:        3 bytes
  3230 ;; Hardware stack levels used:    1
  3231 ;; This function calls:
  3232 ;;		Nothing
  3233 ;; This function is called by:
  3234 ;;		_display_2seg_hc
  3235 ;;		_display_2seg
  3236 ;;		_display_4seg
  3237 ;; This function uses a non-reentrant model
  3238 ;;
  3239                           
  3240                           
  3241                           ;psect for function _display_place
  3242  006C                     _display_place:	
  3243                           
  3244                           ;incstack = 0
  3245                           ; Regs used in _display_place: [wreg-fsr0h+status,2+status,0]
  3246                           ;display_place@num stored from wreg
  3247  006C  00F2               	movwf	display_place@num
  3248  006D                     i1l1294:	
  3249                           
  3250                           ;../library/ledtube.c: 46:     switch(num) {
  3251  006D  29F2               	goto	i1l1298
  3252  006E                     i1l165:	
  3253                           ;../library/ledtube.c: 47:         case 0:
  3254                           
  3255                           
  3256                           ;../library/ledtube.c: 48:                 TRISA0 = TRISA1 = TRISA2 = TRISC0 = TRISC1 = 
      +                          TRISC2 = 0;
  3257  006E  0021               	movlb	1	; select bank1
  3258  006F  110E               	bcf	14,2	;volatile
  3259  0070  108E               	bcf	14,1	;volatile
  3260  0071  100E               	bcf	14,0	;volatile
  3261  0072  110C               	bcf	12,2	;volatile
  3262  0073  108C               	bcf	12,1	;volatile
  3263  0074  100C               	bcf	12,0	;volatile
  3264                           
  3265                           ;../library/ledtube.c: 49:                 LATA0 = LATA1 = LATA2 = LATC0 = LATC1 = LATC2
      +                           = 0;
  3266  0075  0022               	movlb	2	; select bank2
  3267  0076  110E               	bcf	14,2	;volatile
  3268  0077  108E               	bcf	14,1	;volatile
  3269  0078  100E               	bcf	14,0	;volatile
  3270  0079  110C               	bcf	12,2	;volatile
  3271  007A  108C               	bcf	12,1	;volatile
  3272  007B  100C               	bcf	12,0	;volatile
  3273                           
  3274                           ;../library/ledtube.c: 50:                 TRISA5 = TRISA4 = 1;
  3275  007C  0021               	movlb	1	; select bank1
  3276  007D  160C               	bsf	12,4	;volatile
  3277  007E  1A0C               	btfsc	12,4	;volatile
  3278  007F  2881               	goto	u91_21
  3279  0080  2884               	goto	u91_20
  3280  0081                     u91_21:	
  3281  0081  0021               	movlb	1	; select bank1
  3282  0082  168C               	bsf	12,5	;volatile
  3283  0083  2886               	goto	u92_24
  3284  0084                     u91_20:	
  3285  0084  0021               	movlb	1	; select bank1
  3286  0085  128C               	bcf	12,5	;volatile
  3287  0086                     u92_24:	
  3288                           
  3289                           ;../library/ledtube.c: 51:                 LATA5 = LATA4 = 0;
  3290  0086  0022               	movlb	2	; select bank2
  3291  0087  120C               	bcf	12,4	;volatile
  3292  0088  128C               	bcf	12,5	;volatile
  3293                           
  3294                           ;../library/ledtube.c: 52:                 break;
  3295  0089  2A1D               	goto	i1l178
  3296  008A                     i1l167:	
  3297                           ;../library/ledtube.c: 53:         case 1:
  3298                           
  3299                           
  3300                           ;../library/ledtube.c: 54:                 TRISA1 = TRISA2 = 0;
  3301  008A  0021               	movlb	1	; select bank1
  3302  008B  110C               	bcf	12,2	;volatile
  3303  008C  108C               	bcf	12,1	;volatile
  3304                           
  3305                           ;../library/ledtube.c: 55:                 LATA1 = LATA2 = 0;
  3306  008D  0022               	movlb	2	; select bank2
  3307  008E  110C               	bcf	12,2	;volatile
  3308  008F  108C               	bcf	12,1	;volatile
  3309                           
  3310                           ;../library/ledtube.c: 56:                 TRISA0 = TRISC0 = TRISC1 = TRISC2 = TRISA5 = 
      +                          TRISA4 = 1;
  3311  0090  0021               	movlb	1	; select bank1
  3312  0091  160C               	bsf	12,4	;volatile
  3313  0092  1A0C               	btfsc	12,4	;volatile
  3314  0093  2895               	goto	u93_21
  3315  0094  2898               	goto	u93_20
  3316  0095                     u93_21:	
  3317  0095  0021               	movlb	1	; select bank1
  3318  0096  168C               	bsf	12,5	;volatile
  3319  0097  289A               	goto	u94_24
  3320  0098                     u93_20:	
  3321  0098  0021               	movlb	1	; select bank1
  3322  0099  128C               	bcf	12,5	;volatile
  3323  009A                     u94_24:	
  3324  009A  1A8C               	btfsc	12,5	;volatile
  3325  009B  289D               	goto	u94_21
  3326  009C  28A0               	goto	u94_20
  3327  009D                     u94_21:	
  3328  009D  0021               	movlb	1	; select bank1
  3329  009E  150E               	bsf	14,2	;volatile
  3330  009F  28A2               	goto	u95_24
  3331  00A0                     u94_20:	
  3332  00A0  0021               	movlb	1	; select bank1
  3333  00A1  110E               	bcf	14,2	;volatile
  3334  00A2                     u95_24:	
  3335  00A2  190E               	btfsc	14,2	;volatile
  3336  00A3  28A5               	goto	u95_21
  3337  00A4  28A8               	goto	u95_20
  3338  00A5                     u95_21:	
  3339  00A5  0021               	movlb	1	; select bank1
  3340  00A6  148E               	bsf	14,1	;volatile
  3341  00A7  28AA               	goto	u96_24
  3342  00A8                     u95_20:	
  3343  00A8  0021               	movlb	1	; select bank1
  3344  00A9  108E               	bcf	14,1	;volatile
  3345  00AA                     u96_24:	
  3346  00AA  188E               	btfsc	14,1	;volatile
  3347  00AB  28AD               	goto	u96_21
  3348  00AC  28B0               	goto	u96_20
  3349  00AD                     u96_21:	
  3350  00AD  0021               	movlb	1	; select bank1
  3351  00AE  140E               	bsf	14,0	;volatile
  3352  00AF  28B2               	goto	u97_24
  3353  00B0                     u96_20:	
  3354  00B0  0021               	movlb	1	; select bank1
  3355  00B1  100E               	bcf	14,0	;volatile
  3356  00B2                     u97_24:	
  3357  00B2  180E               	btfsc	14,0	;volatile
  3358  00B3  28B5               	goto	u97_21
  3359  00B4  28B8               	goto	u97_20
  3360  00B5                     u97_21:	
  3361  00B5  0021               	movlb	1	; select bank1
  3362  00B6  140C               	bsf	12,0	;volatile
  3363  00B7  28BA               	goto	u98_24
  3364  00B8                     u97_20:	
  3365  00B8  0021               	movlb	1	; select bank1
  3366  00B9  100C               	bcf	12,0	;volatile
  3367  00BA                     u98_24:	
  3368                           
  3369                           ;../library/ledtube.c: 57:                 LATA0 = LATC0 = LATC1 = LATC2 = LATA5 = LATA4
      +                           = 0;
  3370  00BA  0022               	movlb	2	; select bank2
  3371  00BB  120C               	bcf	12,4	;volatile
  3372  00BC  128C               	bcf	12,5	;volatile
  3373  00BD  110E               	bcf	14,2	;volatile
  3374  00BE  108E               	bcf	14,1	;volatile
  3375  00BF  100E               	bcf	14,0	;volatile
  3376  00C0  100C               	bcf	12,0	;volatile
  3377                           
  3378                           ;../library/ledtube.c: 58:                 break;
  3379  00C1  2A1D               	goto	i1l178
  3380  00C2                     i1l168:	
  3381                           ;../library/ledtube.c: 59:         case 2:
  3382                           
  3383                           
  3384                           ;../library/ledtube.c: 60:                 TRISA0 = TRISA1 = TRISA5 = TRISC1 = TRISC0 = 
      +                          0;
  3385  00C2  0021               	movlb	1	; select bank1
  3386  00C3  100E               	bcf	14,0	;volatile
  3387  00C4  108E               	bcf	14,1	;volatile
  3388  00C5  128C               	bcf	12,5	;volatile
  3389  00C6  108C               	bcf	12,1	;volatile
  3390  00C7  100C               	bcf	12,0	;volatile
  3391                           
  3392                           ;../library/ledtube.c: 61:                 LATA0 = LATA1 = LATA5 = LATC1 = LATC0 = 0;
  3393  00C8  0022               	movlb	2	; select bank2
  3394  00C9  100E               	bcf	14,0	;volatile
  3395  00CA  108E               	bcf	14,1	;volatile
  3396  00CB  128C               	bcf	12,5	;volatile
  3397  00CC  108C               	bcf	12,1	;volatile
  3398  00CD  100C               	bcf	12,0	;volatile
  3399                           
  3400                           ;../library/ledtube.c: 62:                 TRISA2 = TRISC2 = TRISA4 = 1;
  3401  00CE  0021               	movlb	1	; select bank1
  3402  00CF  160C               	bsf	12,4	;volatile
  3403  00D0  1A0C               	btfsc	12,4	;volatile
  3404  00D1  28D3               	goto	u99_21
  3405  00D2  28D6               	goto	u99_20
  3406  00D3                     u99_21:	
  3407  00D3  0021               	movlb	1	; select bank1
  3408  00D4  150E               	bsf	14,2	;volatile
  3409  00D5  28D8               	goto	u100_24
  3410  00D6                     u99_20:	
  3411  00D6  0021               	movlb	1	; select bank1
  3412  00D7  110E               	bcf	14,2	;volatile
  3413  00D8                     u100_24:	
  3414  00D8  190E               	btfsc	14,2	;volatile
  3415  00D9  28DB               	goto	u100_21
  3416  00DA  28DE               	goto	u100_20
  3417  00DB                     u100_21:	
  3418  00DB  0021               	movlb	1	; select bank1
  3419  00DC  150C               	bsf	12,2	;volatile
  3420  00DD  28E0               	goto	u101_24
  3421  00DE                     u100_20:	
  3422  00DE  0021               	movlb	1	; select bank1
  3423  00DF  110C               	bcf	12,2	;volatile
  3424  00E0                     u101_24:	
  3425                           
  3426                           ;../library/ledtube.c: 63:                 LATA2 = LATC2 = LATA4 = 0;
  3427  00E0  0022               	movlb	2	; select bank2
  3428  00E1  120C               	bcf	12,4	;volatile
  3429  00E2  110E               	bcf	14,2	;volatile
  3430  00E3  110C               	bcf	12,2	;volatile
  3431                           
  3432                           ;../library/ledtube.c: 64:                 break;
  3433  00E4  2A1D               	goto	i1l178
  3434  00E5                     i1l169:	
  3435                           ;../library/ledtube.c: 65:         case 3:
  3436                           
  3437                           
  3438                           ;../library/ledtube.c: 66:                 TRISA0 = TRISA1 = TRISA2 = TRISC0 = TRISA5 = 
      +                          0;
  3439  00E5  0021               	movlb	1	; select bank1
  3440  00E6  128C               	bcf	12,5	;volatile
  3441  00E7  100E               	bcf	14,0	;volatile
  3442  00E8  110C               	bcf	12,2	;volatile
  3443  00E9  108C               	bcf	12,1	;volatile
  3444  00EA  100C               	bcf	12,0	;volatile
  3445                           
  3446                           ;../library/ledtube.c: 67:                 LATA0 = LATA1 = LATA2 = LATC0 = LATA5 = 0;
  3447  00EB  0022               	movlb	2	; select bank2
  3448  00EC  128C               	bcf	12,5	;volatile
  3449  00ED  100E               	bcf	14,0	;volatile
  3450  00EE  110C               	bcf	12,2	;volatile
  3451  00EF  108C               	bcf	12,1	;volatile
  3452  00F0  100C               	bcf	12,0	;volatile
  3453                           
  3454                           ;../library/ledtube.c: 68:                 TRISC1 = TRISC2 = TRISA4 = 1;
  3455  00F1  0021               	movlb	1	; select bank1
  3456  00F2  160C               	bsf	12,4	;volatile
  3457  00F3  1A0C               	btfsc	12,4	;volatile
  3458  00F4  28F6               	goto	u102_21
  3459  00F5  28F9               	goto	u102_20
  3460  00F6                     u102_21:	
  3461  00F6  0021               	movlb	1	; select bank1
  3462  00F7  150E               	bsf	14,2	;volatile
  3463  00F8  28FB               	goto	u103_24
  3464  00F9                     u102_20:	
  3465  00F9  0021               	movlb	1	; select bank1
  3466  00FA  110E               	bcf	14,2	;volatile
  3467  00FB                     u103_24:	
  3468  00FB  190E               	btfsc	14,2	;volatile
  3469  00FC  28FE               	goto	u103_21
  3470  00FD  2901               	goto	u103_20
  3471  00FE                     u103_21:	
  3472  00FE  0021               	movlb	1	; select bank1
  3473  00FF  148E               	bsf	14,1	;volatile
  3474  0100  2903               	goto	u104_24
  3475  0101                     u103_20:	
  3476  0101  0021               	movlb	1	; select bank1
  3477  0102  108E               	bcf	14,1	;volatile
  3478  0103                     u104_24:	
  3479                           
  3480                           ;../library/ledtube.c: 69:                 LATC1 = LATC2 = LATA4 = 0;
  3481  0103  0022               	movlb	2	; select bank2
  3482  0104  120C               	bcf	12,4	;volatile
  3483  0105  110E               	bcf	14,2	;volatile
  3484  0106  108E               	bcf	14,1	;volatile
  3485                           
  3486                           ;../library/ledtube.c: 70:                 break;
  3487  0107  2A1D               	goto	i1l178
  3488  0108                     i1l170:	
  3489                           ;../library/ledtube.c: 71:         case 4:
  3490                           
  3491                           
  3492                           ;../library/ledtube.c: 72:                 TRISA1 = TRISA2 = TRISC2 = TRISA5 = 0;
  3493  0108  0021               	movlb	1	; select bank1
  3494  0109  128C               	bcf	12,5	;volatile
  3495  010A  110E               	bcf	14,2	;volatile
  3496  010B  110C               	bcf	12,2	;volatile
  3497  010C  108C               	bcf	12,1	;volatile
  3498                           
  3499                           ;../library/ledtube.c: 73:                 LATA1 = LATA2 = LATC2 = LATA5 = 0;
  3500  010D  0022               	movlb	2	; select bank2
  3501  010E  128C               	bcf	12,5	;volatile
  3502  010F  110E               	bcf	14,2	;volatile
  3503  0110  110C               	bcf	12,2	;volatile
  3504  0111  108C               	bcf	12,1	;volatile
  3505                           
  3506                           ;../library/ledtube.c: 74:                 TRISA0 = TRISC0 = TRISC1 = TRISA4 = 1;
  3507  0112  0021               	movlb	1	; select bank1
  3508  0113  160C               	bsf	12,4	;volatile
  3509  0114  1A0C               	btfsc	12,4	;volatile
  3510  0115  2917               	goto	u105_21
  3511  0116  291A               	goto	u105_20
  3512  0117                     u105_21:	
  3513  0117  0021               	movlb	1	; select bank1
  3514  0118  148E               	bsf	14,1	;volatile
  3515  0119  291C               	goto	u106_24
  3516  011A                     u105_20:	
  3517  011A  0021               	movlb	1	; select bank1
  3518  011B  108E               	bcf	14,1	;volatile
  3519  011C                     u106_24:	
  3520  011C  188E               	btfsc	14,1	;volatile
  3521  011D  291F               	goto	u106_21
  3522  011E  2922               	goto	u106_20
  3523  011F                     u106_21:	
  3524  011F  0021               	movlb	1	; select bank1
  3525  0120  140E               	bsf	14,0	;volatile
  3526  0121  2924               	goto	u107_24
  3527  0122                     u106_20:	
  3528  0122  0021               	movlb	1	; select bank1
  3529  0123  100E               	bcf	14,0	;volatile
  3530  0124                     u107_24:	
  3531  0124  180E               	btfsc	14,0	;volatile
  3532  0125  2927               	goto	u107_21
  3533  0126  292A               	goto	u107_20
  3534  0127                     u107_21:	
  3535  0127  0021               	movlb	1	; select bank1
  3536  0128  140C               	bsf	12,0	;volatile
  3537  0129  292C               	goto	u108_24
  3538  012A                     u107_20:	
  3539  012A  0021               	movlb	1	; select bank1
  3540  012B  100C               	bcf	12,0	;volatile
  3541  012C                     u108_24:	
  3542                           
  3543                           ;../library/ledtube.c: 75:                 LATA0 = LATC0 = LATC1 = LATA4 = 0;
  3544  012C  0022               	movlb	2	; select bank2
  3545  012D  120C               	bcf	12,4	;volatile
  3546  012E  108E               	bcf	14,1	;volatile
  3547  012F  100E               	bcf	14,0	;volatile
  3548  0130  100C               	bcf	12,0	;volatile
  3549                           
  3550                           ;../library/ledtube.c: 76:                 break;
  3551  0131  2A1D               	goto	i1l178
  3552  0132                     i1l171:	
  3553                           ;../library/ledtube.c: 77:         case 5:
  3554                           
  3555                           
  3556                           ;../library/ledtube.c: 78:                 TRISA0 = TRISA2 = TRISC0 = TRISC2 = TRISA5 = 
      +                          0;
  3557  0132  0021               	movlb	1	; select bank1
  3558  0133  128C               	bcf	12,5	;volatile
  3559  0134  110E               	bcf	14,2	;volatile
  3560  0135  100E               	bcf	14,0	;volatile
  3561  0136  110C               	bcf	12,2	;volatile
  3562  0137  100C               	bcf	12,0	;volatile
  3563                           
  3564                           ;../library/ledtube.c: 79:                 LATA0 = LATA2 = LATC0 = LATC2 = LATA5 = 0;
  3565  0138  0022               	movlb	2	; select bank2
  3566  0139  128C               	bcf	12,5	;volatile
  3567  013A  110E               	bcf	14,2	;volatile
  3568  013B  100E               	bcf	14,0	;volatile
  3569  013C  110C               	bcf	12,2	;volatile
  3570  013D  100C               	bcf	12,0	;volatile
  3571                           
  3572                           ;../library/ledtube.c: 80:                 TRISA1 = TRISC1 = TRISA4 = 1;
  3573  013E  0021               	movlb	1	; select bank1
  3574  013F  160C               	bsf	12,4	;volatile
  3575  0140  1A0C               	btfsc	12,4	;volatile
  3576  0141  2943               	goto	u109_21
  3577  0142  2946               	goto	u109_20
  3578  0143                     u109_21:	
  3579  0143  0021               	movlb	1	; select bank1
  3580  0144  148E               	bsf	14,1	;volatile
  3581  0145  2948               	goto	u110_24
  3582  0146                     u109_20:	
  3583  0146  0021               	movlb	1	; select bank1
  3584  0147  108E               	bcf	14,1	;volatile
  3585  0148                     u110_24:	
  3586  0148  188E               	btfsc	14,1	;volatile
  3587  0149  294B               	goto	u110_21
  3588  014A  294E               	goto	u110_20
  3589  014B                     u110_21:	
  3590  014B  0021               	movlb	1	; select bank1
  3591  014C  148C               	bsf	12,1	;volatile
  3592  014D  2950               	goto	u111_24
  3593  014E                     u110_20:	
  3594  014E  0021               	movlb	1	; select bank1
  3595  014F  108C               	bcf	12,1	;volatile
  3596  0150                     u111_24:	
  3597                           
  3598                           ;../library/ledtube.c: 81:                 LATA1 = LATC1 = LATA4 = 0;
  3599  0150  0022               	movlb	2	; select bank2
  3600  0151  120C               	bcf	12,4	;volatile
  3601  0152  108E               	bcf	14,1	;volatile
  3602  0153  108C               	bcf	12,1	;volatile
  3603                           
  3604                           ;../library/ledtube.c: 82:                 break;
  3605  0154  2A1D               	goto	i1l178
  3606  0155                     i1l172:	
  3607                           ;../library/ledtube.c: 83:         case 6:
  3608                           
  3609                           
  3610                           ;../library/ledtube.c: 84:                 TRISA0 = TRISA2 = TRISC0 = TRISC1 = TRISC2 = 
      +                          TRISA5 = 0;
  3611  0155  0021               	movlb	1	; select bank1
  3612  0156  128C               	bcf	12,5	;volatile
  3613  0157  110E               	bcf	14,2	;volatile
  3614  0158  108E               	bcf	14,1	;volatile
  3615  0159  100E               	bcf	14,0	;volatile
  3616  015A  110C               	bcf	12,2	;volatile
  3617  015B  100C               	bcf	12,0	;volatile
  3618                           
  3619                           ;../library/ledtube.c: 85:                 LATA0 = LATA2 = LATC0 = LATC1 = LATC2 = LATA5
      +                           = 0;
  3620  015C  0022               	movlb	2	; select bank2
  3621  015D  128C               	bcf	12,5	;volatile
  3622  015E  110E               	bcf	14,2	;volatile
  3623  015F  108E               	bcf	14,1	;volatile
  3624  0160  100E               	bcf	14,0	;volatile
  3625  0161  110C               	bcf	12,2	;volatile
  3626  0162  100C               	bcf	12,0	;volatile
  3627                           
  3628                           ;../library/ledtube.c: 86:                 TRISA1 = TRISA4 = 1;
  3629  0163  0021               	movlb	1	; select bank1
  3630  0164  160C               	bsf	12,4	;volatile
  3631  0165  1A0C               	btfsc	12,4	;volatile
  3632  0166  2968               	goto	u112_21
  3633  0167  296B               	goto	u112_20
  3634  0168                     u112_21:	
  3635  0168  0021               	movlb	1	; select bank1
  3636  0169  148C               	bsf	12,1	;volatile
  3637  016A  296D               	goto	u113_24
  3638  016B                     u112_20:	
  3639  016B  0021               	movlb	1	; select bank1
  3640  016C  108C               	bcf	12,1	;volatile
  3641  016D                     u113_24:	
  3642                           
  3643                           ;../library/ledtube.c: 87:                 LATA1 = LATA4 = 0;
  3644  016D  0022               	movlb	2	; select bank2
  3645  016E  120C               	bcf	12,4	;volatile
  3646  016F  108C               	bcf	12,1	;volatile
  3647                           
  3648                           ;../library/ledtube.c: 88:                 break;
  3649  0170  2A1D               	goto	i1l178
  3650  0171                     i1l173:	
  3651                           ;../library/ledtube.c: 89:         case 7:
  3652                           
  3653                           
  3654                           ;../library/ledtube.c: 90:                 TRISA0 = TRISA1 = TRISA2 = 0;
  3655  0171  0021               	movlb	1	; select bank1
  3656  0172  110C               	bcf	12,2	;volatile
  3657  0173  108C               	bcf	12,1	;volatile
  3658  0174  100C               	bcf	12,0	;volatile
  3659                           
  3660                           ;../library/ledtube.c: 91:                 LATA0 = LATA1 = LATA2 = 0;
  3661  0175  0022               	movlb	2	; select bank2
  3662  0176  110C               	bcf	12,2	;volatile
  3663  0177  108C               	bcf	12,1	;volatile
  3664  0178  100C               	bcf	12,0	;volatile
  3665                           
  3666                           ;../library/ledtube.c: 92:                 TRISC0 = TRISC1 = TRISC2 = TRISA5 = TRISA4 = 
      +                          1;
  3667  0179  0021               	movlb	1	; select bank1
  3668  017A  160C               	bsf	12,4	;volatile
  3669  017B  1A0C               	btfsc	12,4	;volatile
  3670  017C  297E               	goto	u114_21
  3671  017D  2981               	goto	u114_20
  3672  017E                     u114_21:	
  3673  017E  0021               	movlb	1	; select bank1
  3674  017F  168C               	bsf	12,5	;volatile
  3675  0180  2983               	goto	u115_24
  3676  0181                     u114_20:	
  3677  0181  0021               	movlb	1	; select bank1
  3678  0182  128C               	bcf	12,5	;volatile
  3679  0183                     u115_24:	
  3680  0183  1A8C               	btfsc	12,5	;volatile
  3681  0184  2986               	goto	u115_21
  3682  0185  2989               	goto	u115_20
  3683  0186                     u115_21:	
  3684  0186  0021               	movlb	1	; select bank1
  3685  0187  150E               	bsf	14,2	;volatile
  3686  0188  298B               	goto	u116_24
  3687  0189                     u115_20:	
  3688  0189  0021               	movlb	1	; select bank1
  3689  018A  110E               	bcf	14,2	;volatile
  3690  018B                     u116_24:	
  3691  018B  190E               	btfsc	14,2	;volatile
  3692  018C  298E               	goto	u116_21
  3693  018D  2991               	goto	u116_20
  3694  018E                     u116_21:	
  3695  018E  0021               	movlb	1	; select bank1
  3696  018F  148E               	bsf	14,1	;volatile
  3697  0190  2993               	goto	u117_24
  3698  0191                     u116_20:	
  3699  0191  0021               	movlb	1	; select bank1
  3700  0192  108E               	bcf	14,1	;volatile
  3701  0193                     u117_24:	
  3702  0193  188E               	btfsc	14,1	;volatile
  3703  0194  2996               	goto	u117_21
  3704  0195  2999               	goto	u117_20
  3705  0196                     u117_21:	
  3706  0196  0021               	movlb	1	; select bank1
  3707  0197  140E               	bsf	14,0	;volatile
  3708  0198  299B               	goto	u118_24
  3709  0199                     u117_20:	
  3710  0199  0021               	movlb	1	; select bank1
  3711  019A  100E               	bcf	14,0	;volatile
  3712  019B                     u118_24:	
  3713                           
  3714                           ;../library/ledtube.c: 93:                 LATC0 = LATC1 = LATC2 = LATA5 = LATA4 = 0;
  3715  019B  0022               	movlb	2	; select bank2
  3716  019C  120C               	bcf	12,4	;volatile
  3717  019D  128C               	bcf	12,5	;volatile
  3718  019E  110E               	bcf	14,2	;volatile
  3719  019F  108E               	bcf	14,1	;volatile
  3720  01A0  100E               	bcf	14,0	;volatile
  3721                           
  3722                           ;../library/ledtube.c: 94:                 break;
  3723  01A1  2A1D               	goto	i1l178
  3724  01A2                     i1l174:	
  3725                           ;../library/ledtube.c: 95:         case 8:
  3726                           
  3727                           
  3728                           ;../library/ledtube.c: 96:                 TRISA0 = TRISA1 = TRISA2 = TRISC0 = TRISC1 = 
      +                          TRISC2 = TRISA5 = 0;
  3729  01A2  0021               	movlb	1	; select bank1
  3730  01A3  128C               	bcf	12,5	;volatile
  3731  01A4  110E               	bcf	14,2	;volatile
  3732  01A5  108E               	bcf	14,1	;volatile
  3733  01A6  100E               	bcf	14,0	;volatile
  3734  01A7  110C               	bcf	12,2	;volatile
  3735  01A8  108C               	bcf	12,1	;volatile
  3736  01A9  100C               	bcf	12,0	;volatile
  3737                           
  3738                           ;../library/ledtube.c: 97:                 LATA0 = LATA1 = LATA2 = LATC0 = LATC1 = LATC2
      +                           = LATA5 = 0;
  3739  01AA  0022               	movlb	2	; select bank2
  3740  01AB  128C               	bcf	12,5	;volatile
  3741  01AC  110E               	bcf	14,2	;volatile
  3742  01AD  108E               	bcf	14,1	;volatile
  3743  01AE  100E               	bcf	14,0	;volatile
  3744  01AF  110C               	bcf	12,2	;volatile
  3745  01B0  108C               	bcf	12,1	;volatile
  3746  01B1  100C               	bcf	12,0	;volatile
  3747                           
  3748                           ;../library/ledtube.c: 98:                 break;
  3749  01B2  2A1D               	goto	i1l178
  3750  01B3                     i1l175:	
  3751                           ;../library/ledtube.c: 99:         case 9:
  3752                           
  3753                           
  3754                           ;../library/ledtube.c: 100:                 TRISA0 = TRISA1 = TRISA2 = TRISC0 = TRISC2 =
      +                           TRISA5 = 0;
  3755  01B3  0021               	movlb	1	; select bank1
  3756  01B4  128C               	bcf	12,5	;volatile
  3757  01B5  110E               	bcf	14,2	;volatile
  3758  01B6  100E               	bcf	14,0	;volatile
  3759  01B7  110C               	bcf	12,2	;volatile
  3760  01B8  108C               	bcf	12,1	;volatile
  3761  01B9  100C               	bcf	12,0	;volatile
  3762                           
  3763                           ;../library/ledtube.c: 101:                 LATA0 = LATA1 = LATA2 = LATC0 = LATC2 = LATA
      +                          5 = 0;
  3764  01BA  0022               	movlb	2	; select bank2
  3765  01BB  128C               	bcf	12,5	;volatile
  3766  01BC  110E               	bcf	14,2	;volatile
  3767  01BD  100E               	bcf	14,0	;volatile
  3768  01BE  110C               	bcf	12,2	;volatile
  3769  01BF  108C               	bcf	12,1	;volatile
  3770  01C0  100C               	bcf	12,0	;volatile
  3771                           
  3772                           ;../library/ledtube.c: 102:                 TRISC1 = TRISA4 = 1;
  3773  01C1  0021               	movlb	1	; select bank1
  3774  01C2  160C               	bsf	12,4	;volatile
  3775  01C3  1A0C               	btfsc	12,4	;volatile
  3776  01C4  29C6               	goto	u119_21
  3777  01C5  29C9               	goto	u119_20
  3778  01C6                     u119_21:	
  3779  01C6  0021               	movlb	1	; select bank1
  3780  01C7  148E               	bsf	14,1	;volatile
  3781  01C8  29CB               	goto	u120_24
  3782  01C9                     u119_20:	
  3783  01C9  0021               	movlb	1	; select bank1
  3784  01CA  108E               	bcf	14,1	;volatile
  3785  01CB                     u120_24:	
  3786                           
  3787                           ;../library/ledtube.c: 103:                 LATC1 = LATA4 = 0;
  3788  01CB  0022               	movlb	2	; select bank2
  3789  01CC  120C               	bcf	12,4	;volatile
  3790  01CD  108E               	bcf	14,1	;volatile
  3791                           
  3792                           ;../library/ledtube.c: 104:                 break;
  3793  01CE  2A1D               	goto	i1l178
  3794  01CF                     i1l177:	
  3795                           ;../library/ledtube.c: 106:         case 'E':
  3796                           
  3797                           
  3798                           ;../library/ledtube.c: 107:                 TRISA0 = TRISC0 = TRISC1 = TRISC2 = TRISA5 =
      +                           0;
  3799  01CF  0021               	movlb	1	; select bank1
  3800  01D0  128C               	bcf	12,5	;volatile
  3801  01D1  110E               	bcf	14,2	;volatile
  3802  01D2  108E               	bcf	14,1	;volatile
  3803  01D3  100E               	bcf	14,0	;volatile
  3804  01D4  100C               	bcf	12,0	;volatile
  3805                           
  3806                           ;../library/ledtube.c: 108:                 LATA0 = LATC0 = LATC1 = LATC2 = LATA5 = 0;
  3807  01D5  0022               	movlb	2	; select bank2
  3808  01D6  128C               	bcf	12,5	;volatile
  3809  01D7  110E               	bcf	14,2	;volatile
  3810  01D8  108E               	bcf	14,1	;volatile
  3811  01D9  100E               	bcf	14,0	;volatile
  3812  01DA  100C               	bcf	12,0	;volatile
  3813                           
  3814                           ;../library/ledtube.c: 109:                 TRISA1 = TRISA2 = TRISA4 = 1;
  3815  01DB  0021               	movlb	1	; select bank1
  3816  01DC  160C               	bsf	12,4	;volatile
  3817  01DD  1A0C               	btfsc	12,4	;volatile
  3818  01DE  29E0               	goto	u121_21
  3819  01DF  29E3               	goto	u121_20
  3820  01E0                     u121_21:	
  3821  01E0  0021               	movlb	1	; select bank1
  3822  01E1  150C               	bsf	12,2	;volatile
  3823  01E2  29E5               	goto	u122_24
  3824  01E3                     u121_20:	
  3825  01E3  0021               	movlb	1	; select bank1
  3826  01E4  110C               	bcf	12,2	;volatile
  3827  01E5                     u122_24:	
  3828  01E5  190C               	btfsc	12,2	;volatile
  3829  01E6  29E8               	goto	u122_21
  3830  01E7  29EB               	goto	u122_20
  3831  01E8                     u122_21:	
  3832  01E8  0021               	movlb	1	; select bank1
  3833  01E9  148C               	bsf	12,1	;volatile
  3834  01EA  29ED               	goto	u123_24
  3835  01EB                     u122_20:	
  3836  01EB  0021               	movlb	1	; select bank1
  3837  01EC  108C               	bcf	12,1	;volatile
  3838  01ED                     u123_24:	
  3839                           
  3840                           ;../library/ledtube.c: 110:                 LATA1 = LATA2 = LATA4 = 0;
  3841  01ED  0022               	movlb	2	; select bank2
  3842  01EE  120C               	bcf	12,4	;volatile
  3843  01EF  110C               	bcf	12,2	;volatile
  3844  01F0  108C               	bcf	12,1	;volatile
  3845                           
  3846                           ;../library/ledtube.c: 111:                 break;
  3847  01F1  2A1D               	goto	i1l178
  3848  01F2                     i1l1298:	
  3849  01F2  0872               	movf	display_place@num,w
  3850  01F3  00F0               	movwf	??_display_place
  3851  01F4  01F1               	clrf	??_display_place+1
  3852                           
  3853                           ; Switch on 2 bytes has been partitioned into a top level switch of size 1, and 1 sub-sw
      +                          itches
  3854                           ; Switch size 1, requested type "simple"
  3855                           ; Number of cases is 1, Range of values is 0 to 0
  3856                           ; switch strategies available:
  3857                           ; Name         Instructions Cycles
  3858                           ; simple_byte            4     3 (average)
  3859                           ; direct_byte            8     6 (fixed)
  3860                           ; jumptable            260     6 (fixed)
  3861                           ;	Chosen strategy is simple_byte
  3862  01F5  0871               	movf	??_display_place+1,w
  3863  01F6  3A00               	xorlw	0	; case 0
  3864  01F7  1903               	skipnz
  3865  01F8  29FA               	goto	i1l1636
  3866  01F9  29CF               	goto	i1l177
  3867  01FA                     i1l1636:	
  3868                           
  3869                           ; Switch size 1, requested type "simple"
  3870                           ; Number of cases is 11, Range of values is 0 to 69
  3871                           ; switch strategies available:
  3872                           ; Name         Instructions Cycles
  3873                           ; simple_byte           34    18 (average)
  3874                           ; direct_byte          146     6 (fixed)
  3875                           ; jumptable            260     6 (fixed)
  3876                           ;	Chosen strategy is simple_byte
  3877  01FA  0870               	movf	??_display_place,w
  3878  01FB  3A00               	xorlw	0	; case 0
  3879  01FC  1903               	skipnz
  3880  01FD  286E               	goto	i1l165
  3881  01FE  3A01               	xorlw	1	; case 1
  3882  01FF  1903               	skipnz
  3883  0200  288A               	goto	i1l167
  3884  0201  3A03               	xorlw	3	; case 2
  3885  0202  1903               	skipnz
  3886  0203  28C2               	goto	i1l168
  3887  0204  3A01               	xorlw	1	; case 3
  3888  0205  1903               	skipnz
  3889  0206  28E5               	goto	i1l169
  3890  0207  3A07               	xorlw	7	; case 4
  3891  0208  1903               	skipnz
  3892  0209  2908               	goto	i1l170
  3893  020A  3A01               	xorlw	1	; case 5
  3894  020B  1903               	skipnz
  3895  020C  2932               	goto	i1l171
  3896  020D  3A03               	xorlw	3	; case 6
  3897  020E  1903               	skipnz
  3898  020F  2955               	goto	i1l172
  3899  0210  3A01               	xorlw	1	; case 7
  3900  0211  1903               	skipnz
  3901  0212  2971               	goto	i1l173
  3902  0213  3A0F               	xorlw	15	; case 8
  3903  0214  1903               	skipnz
  3904  0215  29A2               	goto	i1l174
  3905  0216  3A01               	xorlw	1	; case 9
  3906  0217  1903               	skipnz
  3907  0218  29B3               	goto	i1l175
  3908  0219  3A4C               	xorlw	76	; case 69
  3909  021A  1903               	skipnz
  3910  021B  29CF               	goto	i1l177
  3911  021C  29CF               	goto	i1l177
  3912  021D                     i1l178:	
  3913  021D  0008               	return
  3914  021E                     __end_of_display_place:	
  3915  007E                     btemp	set	126	;btemp
  3916  007E                     int$flags	set	126
  3917  007E                     wtemp0	set	126


Data Sizes:
    Strings     0
    Constant    0
    Data        1
    BSS         4
    Persistent  32
    Stack       0

Auto Spaces:
    Space          Size  Autos    Used
    COMMON           14     10      11
    BANK0            80     48      52
    BANK1            32      0       0

Pointer List with Targets:

    None.

Critical Paths under _main in COMMON

    None.

Critical Paths under _isr in COMMON

    _isr->_display_2seg_hc
    _display_2seg_hc->_display_place

Critical Paths under _main in BANK0

    _main->_DS_GetTemp
    ___lwmod->___lwdiv
    _DS_GetTemp->___lldiv
    ___lldiv->___lmul
    _DS_Convert->_DS_Write

Critical Paths under _isr in BANK0

    None.

Critical Paths under _main in BANK1

    None.

Critical Paths under _isr in BANK1

    None.

Call Graph Tables:

 ---------------------------------------------------------------------------------
 (Depth) Function   	        Calls       Base Space   Used Autos Params    Refs
 ---------------------------------------------------------------------------------
 (0) _main                                                 4     4      0    2930
                                             44 BANK0      4     4      0
                         _DS_Convert
                         _DS_GetTemp
                          _FOSC_Init
                          _PORT_Init
                         _TIME0_Init
                            ___lwdiv
                            ___lwmod
 ---------------------------------------------------------------------------------
 (1) ___lwmod                                              6     2      4     767
                                              8 BANK0      6     2      4
                            ___lwdiv (ARG)
 ---------------------------------------------------------------------------------
 (1) ___lwdiv                                              8     4      4     618
                                              0 BANK0      8     4      4
 ---------------------------------------------------------------------------------
 (1) _TIME0_Init                                           0     0      0       0
 ---------------------------------------------------------------------------------
 (1) _PORT_Init                                            0     0      0       0
                         _PORTA_Init
                         _PORTC_Init
 ---------------------------------------------------------------------------------
 (2) _PORTC_Init                                           0     0      0       0
 ---------------------------------------------------------------------------------
 (2) _PORTA_Init                                           0     0      0       0
 ---------------------------------------------------------------------------------
 (1) _FOSC_Init                                            0     0      0       0
 ---------------------------------------------------------------------------------
 (1) _DS_GetTemp                                          18    16      2    1362
                                             26 BANK0     18    16      2
                            _DS_Read
                            _DS_Rest
                           _DS_Write
                            ___lldiv
                             ___lmul
 ---------------------------------------------------------------------------------
 (2) ___lmul                                              12     4      8     396
                                              0 BANK0     12     4      8
 ---------------------------------------------------------------------------------
 (2) ___lldiv                                             14     6      8     466
                                             12 BANK0     14     6      8
                             ___lmul (ARG)
 ---------------------------------------------------------------------------------
 (2) _DS_Read                                              5     5      0     114
                                              0 BANK0      5     5      0
 ---------------------------------------------------------------------------------
 (1) _DS_Convert                                           2     2      0      93
                                              3 BANK0      2     2      0
                            _DS_Rest
                           _DS_Write
 ---------------------------------------------------------------------------------
 (2) _DS_Write                                             3     3      0      69
                                              0 BANK0      3     3      0
 ---------------------------------------------------------------------------------
 (2) _DS_Rest                                              1     1      0      24
                                              0 BANK0      1     1      0
 ---------------------------------------------------------------------------------
 Estimated maximum stack depth 2
 ---------------------------------------------------------------------------------
 (Depth) Function   	        Calls       Base Space   Used Autos Params    Refs
 ---------------------------------------------------------------------------------
 (3) _isr                                                  2     2      0     696
                                              8 COMMON     2     2      0
                    _display_2seg_hc
 ---------------------------------------------------------------------------------
 (4) _display_2seg_hc                                      5     3      2     696
                                              3 COMMON     5     3      2
                      _display_place
 ---------------------------------------------------------------------------------
 (5) _display_place                                        3     3      0      22
                                              0 COMMON     3     3      0
 ---------------------------------------------------------------------------------
 Estimated maximum stack depth 5
 ---------------------------------------------------------------------------------

 Call Graph Graphs:

 _main (ROOT)
   _DS_Convert
     _DS_Rest
     _DS_Write
   _DS_GetTemp
     _DS_Read
     _DS_Rest
     _DS_Write
     ___lldiv
       ___lmul (ARG)
     ___lmul
   _FOSC_Init
   _PORT_Init
     _PORTA_Init
     _PORTC_Init
   _TIME0_Init
   ___lwdiv
   ___lwmod
     ___lwdiv (ARG)

 _isr (ROOT)
   _display_2seg_hc
     _display_place

 Address spaces:
Name               Size   Autos  Total    Cost      Usage
BIGRAM              70      0       0       0        0.0%
EEDATA             100      0       0       0        0.0%
NULL                 0      0       0       0        0.0%
CODE                 0      0       0       0        0.0%
BITCOMMON            E      0       0       1        0.0%
BITSFR0              0      0       0       1        0.0%
SFR0                 0      0       0       1        0.0%
COMMON               E      A       B       2       78.6%
BITSFR1              0      0       0       2        0.0%
SFR1                 0      0       0       2        0.0%
BITSFR2              0      0       0       3        0.0%
SFR2                 0      0       0       3        0.0%
STACK                0      0       0       3        0.0%
BITSFR3              0      0       0       4        0.0%
SFR3                 0      0       0       4        0.0%
ABS                  0      0      3F       4        0.0%
BITBANK0            50      0       0       5        0.0%
BITSFR4              0      0       0       5        0.0%
SFR4                 0      0       0       5        0.0%
BANK0               50     30      34       6       65.0%
BITSFR5              0      0       0       6        0.0%
SFR5                 0      0       0       6        0.0%
BITBANK1            20      0       0       7        0.0%
BITSFR6              0      0       0       7        0.0%
SFR6                 0      0       0       7        0.0%
BANK1               20      0       0       8        0.0%
BITSFR7              0      0       0       8        0.0%
SFR7                 0      0       0       8        0.0%
BITSFR8              0      0       0       9        0.0%
SFR8                 0      0       0       9        0.0%
DATA                 0      0      3F       9        0.0%
BITSFR9              0      0       0      10        0.0%
SFR9                 0      0       0      10        0.0%
BITSFR10             0      0       0      11        0.0%
SFR10                0      0       0      11        0.0%
BITSFR11             0      0       0      12        0.0%
SFR11                0      0       0      12        0.0%
BITSFR12             0      0       0      13        0.0%
SFR12                0      0       0      13        0.0%
BITSFR13             0      0       0      14        0.0%
SFR13                0      0       0      14        0.0%
BITSFR14             0      0       0      15        0.0%
SFR14                0      0       0      15        0.0%
BITSFR15             0      0       0      16        0.0%
SFR15                0      0       0      16        0.0%
BITSFR16             0      0       0      17        0.0%
SFR16                0      0       0      17        0.0%
BITSFR17             0      0       0      18        0.0%
SFR17                0      0       0      18        0.0%
BITSFR18             0      0       0      19        0.0%
SFR18                0      0       0      19        0.0%
BITSFR19             0      0       0      20        0.0%
SFR19                0      0       0      20        0.0%
BITSFR20             0      0       0      21        0.0%
SFR20                0      0       0      21        0.0%
BITSFR21             0      0       0      22        0.0%
SFR21                0      0       0      22        0.0%
BITSFR22             0      0       0      23        0.0%
SFR22                0      0       0      23        0.0%
BITSFR23             0      0       0      24        0.0%
SFR23                0      0       0      24        0.0%
BITSFR24             0      0       0      25        0.0%
SFR24                0      0       0      25        0.0%
BITSFR25             0      0       0      26        0.0%
SFR25                0      0       0      26        0.0%
BITSFR26             0      0       0      27        0.0%
SFR26                0      0       0      27        0.0%
BITSFR27             0      0       0      28        0.0%
SFR27                0      0       0      28        0.0%
BITSFR28             0      0       0      29        0.0%
SFR28                0      0       0      29        0.0%
BITSFR29             0      0       0      30        0.0%
SFR29                0      0       0      30        0.0%
BITSFR30             0      0       0      31        0.0%
SFR30                0      0       0      31        0.0%
BITSFR31             0      0       0      32        0.0%
SFR31                0      0       0      32        0.0%


Microchip Technology PIC Macro Assembler V2.10 build 88905656 
Symbol Table                                                                                   Tue Sep 24 21:37:14 2019

             __CFG_CP$OFF 0000                        l29 053A                        l70 04CF  
                      l71 04F1                        l64 04FC                        l72 04F6  
                      l80 052F                        l66 0512                        l67 0516  
                      l75 049C                        l76 04C8                        l77 04CA  
                      l85 02C7                        _ds 0050                       l111 0553  
                     l114 054C                       l117 0543                       l224 0557  
                     l410 03AB                       l388 0498                       l654 042F  
                     l664 0464                       _GIE 005F                       _RA3 0063  
                     _RC4 0074              __CFG_CPD$OFF 0000                       u900 04C8  
                     u901 04C7                       u840 050C                       u841 050B  
                     u850 0512                       u851 0511                       u860 04DC  
                     u861 04D9                       u880 04F1                       u881 04F0  
                     u874 04DE                       u895 04B6                       _isr 0004  
            __CFG_BORV$LO 0000                       wreg 0009              __CFG_LVP$OFF 0000  
                    l1310 047A                      l1240 050C                      l1232 04F7  
                    l1320 0362                      l1312 0481                      l1304 0465  
                    l1400 025A                      l1234 04FF                      l1242 050D  
                    l1330 038D                      l1322 0365                      l1314 0490  
                    l1306 046E                      l1410 02AF                      l1402 0265  
                    l1244 0513                      l1236 0502                      l1260 04EB  
                    l1332 0395                      l1324 0370                      l1308 0472  
                    l1404 026B                      l1420 03F6                      l1500 02D1  
                    l1238 0507                      l1262 04F2                      l1254 04DE  
                    l1246 04CD                      l1334 0396                      l1326 0374  
                    l1318 0351                      l1414 02C3                      l1406 027E  
                    l1342 0530                      l1430 040C                      l1422 03FC  
                    l1510 02F9                      l1502 02D1                      l1256 04E2  
                    l1248 04CE                      l1280 04B2                      l1272 049F  
                    l1264 0499                      l1336 039D                      l1328 037B  
                    l1408 0284                      l1344 0533                      l1432 041B  
                    l1424 03FF                      l1440 042B                      l1512 0315  
                    l1504 02D4                      l1258 04E7                      l1370 0522  
                    l1282 04BE                      l1274 04A3                      l1266 049A  
                    l1338 03A3                      l1290 0544                      l1346 0536  
                    l1434 041F                      l1426 0404                      l1418 03F3  
                    l1450 043F                      l1514 0331                      l1506 02D5  
                    l1284 04C2                      l1276 04A9                      l1380 0234  
                    l1372 021E                      l1364 0554                      l1292 053B  
                    l1436 0420                      l1428 0408                      l1460 045A  
                    l1452 0443                      l1444 0430                      l1516 0341  
                    l1508 02DD                      l1286 04C9                      l1278 04AE  
                    l1390 024B                      l1382 023B                      l1374 0229  
                    l1366 054D                      l1438 0425                      l1454 0447  
                    l1446 0437                      l1462 0460                      l1518 0342  
                    l1368 0517                      l1392 024E                      l1384 0242  
                    l1376 022C                      l1456 0451                      l1448 043A  
                    l1394 0251                      l1386 0245                      l1378 0230  
                    l1458 0455                      l1396 0254                      l1388 0248  
                    l1398 0257                      l1494 02C8                      l1496 02CB  
                    l1498 02CE                      ?_isr 0070                      u1300 0374  
                    u1301 0373                      u1320 038D                      u1240 0472  
                    u1400 040C                      u1321 038C                      u1241 0471  
                    u1401 040B                      u1315 0375                      u1340 03A3  
                    u1420 041B                      u1500 0460                      u1341 03A2  
                    u1325 0389                      u1421 041A                      u1501 045F  
                    _LATA 010C                      u1270 0490                      u1335 0397  
                    u1271 048F                      u1255 047B                      u1415 040D  
                    _LATC 010E                      u1280 0362                      u1440 042B  
                    u1281 0361                      u1265 0482                      u1441 042A  
                    u1425 0417                      u1370 026B                      u1450 0437  
                    u1371 026A                      u1435 0421                      u1451 0436  
                    u1380 03FC                      u1365 025E                      u1381 03FB  
                    u1470 0447                      u1295 0366                      u1471 0446  
                    u1480 0451                      u1481 0450                      u1465 043B  
                    u1707 04AF                      u1395 0400                      u1717 0528  
                    u1485 044D                      u1727 04DF                      u1495 0456  
                    u1737 04F3                      u1747 0500                      u1757 0505  
                    u1677 0348                      u1767 0514                      u1687 04A0  
                    u1697 04A6                      _PEIE 005E                      i1l44 005E  
          ?_display_place 0070           __end_of_DS_Read 04CB                      _TMR0 0015  
         __end_of_DS_Rest 0517              __CFG_WRT$OFF 0000                      _main 02C8  
             ?_DS_GetTemp 003A                      btemp 007E                      isr@i 007A  
             ?_DS_Convert 0070        __size_of_FOSC_Init 0004                      start 0060  
           __CFG_IESO$OFF 0000               ?_TIME0_Init 0070                     ??_isr 0078  
                   ?_main 0070             __CFG_WDTE$OFF 0000           __end_of___lldiv 03AC  
                   _LATA0 0860                     _LATA1 0861                     _LATA2 0862  
                   _LATC0 0870                     _LATA4 0864                     _LATC1 0871  
                   _LATA5 0865                     _LATC2 0872                     _LATC3 0873  
                   _LATC5 0875           __end_of___lwdiv 0430                     i1l200 03EE  
                   i1l202 03F2                     i1l170 0108                     i1l171 0132  
                   i1l172 0155                     i1l173 0171                     i1l165 006E  
                   i1l174 01A2                     i1l175 01B3                     i1l167 008A  
                   i1l168 00C2                     i1l177 01CF                     i1l169 00E5  
         __end_of___lwmod 0465                     i1l178 021D                     i1l195 03AE  
                   i1l197 03B5                     i1l198 03BC                     i1l199 03C3  
                   _PORTA 000C                     _PORTC 000E                     _TRISA 008C  
                   _TRISC 008E                     u91_20 0084                     u91_21 0081  
                   u92_24 0086                     u93_20 0098                     u93_21 0095  
                   u94_20 00A0                     u94_21 009D                     u94_24 009A  
                   u95_20 00A8                     u95_21 00A5                     u95_24 00A2  
                   u96_20 00B0                     u96_21 00AD                     u96_24 00AA  
                   u97_20 00B8                     u97_21 00B5                     u97_24 00B2  
                   u98_24 00BA                     u99_20 00D6                     u99_21 00D3  
        __end_of_DS_Write 04F7       ___lmul@multiplicand 0024               ?_PORTA_Init 0070  
          __CFG_FCMEN$OFF 0000               ?_PORTC_Init 0070        __size_of_PORT_Init 0007  
          __CFG_BOREN$OFF 0000                     status 0003                     wtemp0 007E  
        ?_display_2seg_hc 0073            __CFG_MCLRE$OFF 0000           __initialization 0061  
            __end_of_main 0351                    ??_main 004C       __size_of_DS_GetTemp 00AA  
          __CFG_PLLEN$OFF 0000         __end_of_FOSC_Init 0558       __size_of_DS_Convert 0019  
               ??_DS_Read 0020                 ??_DS_Rest 0020           ??_display_place 0070  
     __size_of_TIME0_Init 000B                    _ANSELA 018C                    _ANSELC 018E  
                  u100_20 00DE                    u100_21 00DB                    u100_24 00D8  
                  u101_24 00E0                    u110_20 014E                    u102_20 00F9  
                  u110_21 014B                    u102_21 00F6                    u110_24 0148  
                  u103_20 0101                    u103_21 00FE                    u111_24 0150  
                  u103_24 00FB                    u112_20 016B                    i1l1352 03CA  
                  u112_21 0168                    i1l1354 03E0                    u120_24 01CB  
                  u104_24 0103                    i1l1356 03E4                    i1l1348 03AD  
                  i1l1294 006D                    i1l1358 03E9                    i1l1470 0010  
                  u121_20 01E3                    u105_20 011A                    i1l1632 0048  
                  i1l1472 0013                    u121_21 01E0                    u105_21 0117  
                  i1l1298 01F2                    i1l1634 03D2                    i1l1474 001E  
                  i1l1482 0040                    i1l1466 0006                    i1l1636 01FA  
                  u113_24 016D                    i1l1476 002A                    i1l1484 0056  
                  i1l1468 000A                    i1l1486 005A                    i1l1478 0035  
                  u122_20 01EB                    u114_20 0181                    u106_20 0122  
                  i1l1488 005D                    u122_21 01E8                    u114_21 017E  
                  u106_21 011F                    u122_24 01E5                    u106_24 011C  
                  u115_20 0189                    u107_20 012A                    u115_21 0186  
                  u107_21 0127                    u123_24 01ED                    u115_24 0183  
                  u107_24 0124                    u116_20 0191                    u116_21 018E  
                  u116_24 018B                    u108_24 012C                    u117_20 0199  
                  u109_20 0146                    u117_21 0196                    u109_21 0143  
                  u117_24 0193                    u118_24 019B                    u119_20 01C9  
                  u135_20 03E9                    u151_20 000A                    u119_21 01C6  
                  u135_21 03E8                    u151_21 0009                    u152_20 0010  
                  u152_21 000F                    _OSCCON 0099                    _TMR0IE 005D  
                  _TMR0IF 005A                    _TRISA0 0460                    _TRISA1 0461  
                  _TRISA2 0462                    _TRISA3 0463                    _TRISC0 0470  
                  _TRISA4 0464                    _TRISC1 0471                    _TRISA5 0465  
                  _TRISC2 0472                    _TRISC3 0473                    _TRISC4 0474  
                  _TRISC5 0475            __CFG_PWRTE$OFF 0000       __size_of_PORTA_Init 0009  
     __size_of_PORTC_Init 0009                    ___lmul 0465                 ??___lldiv 0034  
               ??___lwdiv 0024                 ??___lwmod 002C         __end_of_PORT_Init 0554  
            __pdataCOMMON 007A   __end_of__initialization 0069            __pcstackCOMMON 0070  
               ?_DS_Write 0070               DS_Read@temp 0022         display_2seg_hc@dp 0073  
             DS_Rest@flag 0020                __pbssBANK0 0050              ??_DS_GetTemp 003C  
            ??_DS_Convert 0023                __pmaintext 02C8                 DS_Write@i 0022  
              ??_DS_Write 0020              ??_TIME0_Init 0020                   ?___lmul 0020  
              __pintentry 0004            ___lmul@product 0028        __end_of_DS_GetTemp 02C8  
            ??_PORTA_Init 0020              ??_PORTC_Init 0020        __end_of_DS_Convert 0530  
                 _DS_Read 0499                   _DS_Rest 04F7        __end_of_TIME0_Init 053B  
      __end_of_PORTA_Init 054D           __size_of___lmul 0034        __end_of_PORTC_Init 0544  
                 ___lldiv 0351                   ___lwdiv 03F3                   ___lwmod 0430  
         __CFG_STVREN$OFF 0000                   __ptext1 0430                   __ptext2 03F3  
                 __ptext3 0530                   __ptext4 054D                   __ptext5 053B  
                 __ptext6 0544                   __ptext7 0554                   __ptext8 021E  
                 __ptext9 0465              __size_of_isr 005C                 _FOSC_Init 0554  
    end_of_initialization 0069           ___lldiv@divisor 002C           ___lldiv@counter 0039  
         DS_Write@command 0021  __size_of_display_2seg_hc 0047                 _PORT_Init 054D  
        __CFG_FOSC$INTOSC 0000                ?_FOSC_Init 0070     __end_of_display_place 021E  
          __end_of___lmul 0499         __size_of_DS_Write 002C              DS_Read@value 0023  
           __pidataCOMMON 0558                ?_PORT_Init 0070       start_initialization 0061  
      DS_GetTemp@ds_hight 0049               __end_of_isr 0060        display_2seg_hc@seg 0074  
      display_2seg_hc@num 0077                  ??___lmul 0028         ??_display_2seg_hc 0075  
               ___latbits 0000             __pcstackBANK0 0020                  ?_DS_Read 0070  
                ?_DS_Rest 0070               ??_FOSC_Init 0020                  DS_Read@i 0024  
        ___lwdiv@dividend 0022                  ?___lldiv 002C                  ?___lwdiv 0020  
                ?___lwmod 0028               ??_PORT_Init 0020          ___lwdiv@quotient 0025  
                _DS_Write 04CB          __size_of_DS_Read 0032          __size_of_DS_Rest 0020  
       ___lmul@multiplier 0020          __size_of___lldiv 005B          __size_of___lwdiv 003D  
        __size_of___lwmod 0035           ___lwdiv@divisor 0020           ___lwdiv@counter 0027  
                __ptext10 0351                  __ptext11 0499                  __ptext12 0517  
                __ptext13 04CB                  __ptext14 04F7                  __ptext16 03AC  
                __ptext17 006C             __size_of_main 0089           _display_2seg_hc 03AC  
                int$flags 007E                  main@temp 004E          display_place@num 0072  
  __size_of_display_place 01B2          DS_GetTemp@ds_crc 0046          DS_GetTemp@ds_rs1 0043  
        DS_GetTemp@ds_rs2 0044          DS_GetTemp@ds_rs3 0045          DS_GetTemp@ds_low 0048  
                intlevel1 0000          ___lwmod@dividend 002A          ___lldiv@dividend 0030  
              _DS_GetTemp 021E         __CFG_CLKOUTEN$OFF 0000                _DS_Convert 0517  
              _TIME0_Init 0530           DS_GetTemp@ds_th 0040           DS_GetTemp@ds_tl 0041  
              _OPTION_REG 0095          ___lldiv@quotient 0035           ___lwmod@divisor 0028  
         ___lwmod@counter 002D                _PORTA_Init 0544                _PORTC_Init 053B  
          DS_GetTemp@temp 0047             _display_place 006C             DS_GetTemp@ret 004A  
 __end_of_display_2seg_hc 03F3  
