

Microchip MPLAB XC8 Assembler V2.10 build 88905656 
                                                                                               Wed Sep 25 14:35:35 2019

Microchip MPLAB XC8 C Compiler v2.10 (Free license) build 20190730164152 Og9 
     1                           	processor	16F1823
     2                           	opt	pw 120
     3                           	opt	flic
     4                           	psect	idataCOMMON,global,class=CODE,delta=2
     5                           	psect	cinit,global,class=CODE,merge=1,delta=2
     6                           	psect	dataCOMMON,global,class=COMMON,space=1,delta=1
     7                           	psect	bssBANK0,global,class=BANK0,space=1,delta=1
     8                           	psect	cstackCOMMON,global,class=COMMON,space=1,delta=1
     9                           	psect	cstackBANK0,global,class=BANK0,space=1,delta=1
    10                           	psect	maintext,global,class=CODE,merge=1,split=1,delta=2
    11                           	psect	text1,local,class=CODE,merge=1,delta=2,group=1
    12                           	psect	text2,local,class=CODE,merge=1,delta=2,group=1
    13                           	psect	text3,local,class=CODE,merge=1,delta=2
    14                           	psect	text4,local,class=CODE,merge=1,delta=2
    15                           	psect	text5,local,class=CODE,merge=1,delta=2
    16                           	psect	text6,local,class=CODE,merge=1,delta=2
    17                           	psect	text7,local,class=CODE,merge=1,delta=2
    18                           	psect	text8,local,class=CODE,merge=1,delta=2
    19                           	psect	intentry,global,class=CODE,delta=2
    20                           	psect	text10,local,class=CODE,merge=1,delta=2
    21                           	psect	text11,local,class=CODE,merge=1,inline,delta=2
    22                           	dabs	1,0x7E,2
    23  0000                     
    24                           ; Version 2.10
    25                           ; Generated 31/07/2019 GMT
    26                           ; 
    27                           ; Copyright © 2019, Microchip Technology Inc. and its subsidiaries ("Microchip")
    28                           ; All rights reserved.
    29                           ; 
    30                           ; This software is developed by Microchip Technology Inc. and its subsidiaries ("Microch
      +                          ip").
    31                           ; 
    32                           ; Redistribution and use in source and binary forms, with or without modification, are
    33                           ; permitted provided that the following conditions are met:
    34                           ; 
    35                           ;     1. Redistributions of source code must retain the above copyright notice, this lis
      +                          t of
    36                           ;        conditions and the following disclaimer.
    37                           ; 
    38                           ;     2. Redistributions in binary form must reproduce the above copyright notice, this 
      +                          list
    39                           ;        of conditions and the following disclaimer in the documentation and/or other
    40                           ;        materials provided with the distribution.
    41                           ; 
    42                           ;     3. Microchip's name may not be used to endorse or promote products derived from th
      +                          is
    43                           ;        software without specific prior written permission.
    44                           ; 
    45                           ; THIS SOFTWARE IS PROVIDED BY MICROCHIP "AS IS" AND ANY EXPRESS OR IMPLIED WARRANTIES,
    46                           ; INCLUDING, BUT NOT LIMITED TO, THE IMPLIED WARRANTIES OF MERCHANTABILITY AND FITNESS F
      +                          OR
    47                           ; PURPOSE ARE DISCLAIMED.  IN NO EVENT SHALL MICROCHIP BE LIABLE FOR ANY DIRECT, INDIREC
      +                          T,
    48                           ; INCIDENTAL, SPECIAL, EXEMPLARY, OR CONSEQUENTIAL DAMAGES (INCLUDING BUT NOT LIMITED TO
    49                           ; PROCUREMENT OF SUBSTITUTE GOODS OR SERVICES; LOSS OF USE, DATA OR PROFITS; OR BUSINESS
    50                           ; INTERRUPTION) HOWSOEVER CAUSED AND ON ANY THEORY OF LIABILITY, WHETHER IN CONTRACT, ST
      +                          RICT
    51                           ; LIABILITY, OR TORT (INCLUDING NEGLIGENCE OR OTHERWISE) ARISING IN ANY WAY OUT OF THE U
      +                          SE OF
    52                           ; THIS SOFTWARE, EVEN IF ADVISED OF THE POSSIBILITY OF SUCH DAMAGE.
    53                           ; 
    54                           ; 
    55                           ; Code-generator required, PIC16F1823 Definitions
    56                           ; 
    57                           ; SFR Addresses
    58  0000                     	;# 
    59  0001                     	;# 
    60  0002                     	;# 
    61  0003                     	;# 
    62  0004                     	;# 
    63  0005                     	;# 
    64  0006                     	;# 
    65  0007                     	;# 
    66  0008                     	;# 
    67  0009                     	;# 
    68  000A                     	;# 
    69  000B                     	;# 
    70  000C                     	;# 
    71  000E                     	;# 
    72  0011                     	;# 
    73  0012                     	;# 
    74  0015                     	;# 
    75  0016                     	;# 
    76  0016                     	;# 
    77  0017                     	;# 
    78  0018                     	;# 
    79  0019                     	;# 
    80  001A                     	;# 
    81  001B                     	;# 
    82  001C                     	;# 
    83  001E                     	;# 
    84  001F                     	;# 
    85  008C                     	;# 
    86  008E                     	;# 
    87  0091                     	;# 
    88  0092                     	;# 
    89  0095                     	;# 
    90  0096                     	;# 
    91  0097                     	;# 
    92  0098                     	;# 
    93  0099                     	;# 
    94  009A                     	;# 
    95  009B                     	;# 
    96  009B                     	;# 
    97  009C                     	;# 
    98  009D                     	;# 
    99  009E                     	;# 
   100  010C                     	;# 
   101  010E                     	;# 
   102  0111                     	;# 
   103  0112                     	;# 
   104  0113                     	;# 
   105  0114                     	;# 
   106  0115                     	;# 
   107  0116                     	;# 
   108  0117                     	;# 
   109  0118                     	;# 
   110  0119                     	;# 
   111  011A                     	;# 
   112  011B                     	;# 
   113  011D                     	;# 
   114  011D                     	;# 
   115  018C                     	;# 
   116  018E                     	;# 
   117  0191                     	;# 
   118  0191                     	;# 
   119  0192                     	;# 
   120  0193                     	;# 
   121  0193                     	;# 
   122  0193                     	;# 
   123  0194                     	;# 
   124  0195                     	;# 
   125  0196                     	;# 
   126  0199                     	;# 
   127  019A                     	;# 
   128  019B                     	;# 
   129  019B                     	;# 
   130  019B                     	;# 
   131  019B                     	;# 
   132  019C                     	;# 
   133  019C                     	;# 
   134  019D                     	;# 
   135  019E                     	;# 
   136  019F                     	;# 
   137  020C                     	;# 
   138  020E                     	;# 
   139  0211                     	;# 
   140  0211                     	;# 
   141  0212                     	;# 
   142  0212                     	;# 
   143  0213                     	;# 
   144  0213                     	;# 
   145  0214                     	;# 
   146  0214                     	;# 
   147  0215                     	;# 
   148  0215                     	;# 
   149  0215                     	;# 
   150  0216                     	;# 
   151  0216                     	;# 
   152  0217                     	;# 
   153  0217                     	;# 
   154  0291                     	;# 
   155  0291                     	;# 
   156  0292                     	;# 
   157  0293                     	;# 
   158  0294                     	;# 
   159  0295                     	;# 
   160  0295                     	;# 
   161  0296                     	;# 
   162  0391                     	;# 
   163  0392                     	;# 
   164  0393                     	;# 
   165  039A                     	;# 
   166  039C                     	;# 
   167  039D                     	;# 
   168  039E                     	;# 
   169  039F                     	;# 
   170  0FE4                     	;# 
   171  0FE5                     	;# 
   172  0FE6                     	;# 
   173  0FE7                     	;# 
   174  0FE8                     	;# 
   175  0FE9                     	;# 
   176  0FEA                     	;# 
   177  0FEB                     	;# 
   178  0FED                     	;# 
   179  0FEE                     	;# 
   180  0FEF                     	;# 
   181  0000                     	;# 
   182  0001                     	;# 
   183  0002                     	;# 
   184  0003                     	;# 
   185  0004                     	;# 
   186  0005                     	;# 
   187  0006                     	;# 
   188  0007                     	;# 
   189  0008                     	;# 
   190  0009                     	;# 
   191  000A                     	;# 
   192  000B                     	;# 
   193  000C                     	;# 
   194  000E                     	;# 
   195  0011                     	;# 
   196  0012                     	;# 
   197  0015                     	;# 
   198  0016                     	;# 
   199  0016                     	;# 
   200  0017                     	;# 
   201  0018                     	;# 
   202  0019                     	;# 
   203  001A                     	;# 
   204  001B                     	;# 
   205  001C                     	;# 
   206  001E                     	;# 
   207  001F                     	;# 
   208  008C                     	;# 
   209  008E                     	;# 
   210  0091                     	;# 
   211  0092                     	;# 
   212  0095                     	;# 
   213  0096                     	;# 
   214  0097                     	;# 
   215  0098                     	;# 
   216  0099                     	;# 
   217  009A                     	;# 
   218  009B                     	;# 
   219  009B                     	;# 
   220  009C                     	;# 
   221  009D                     	;# 
   222  009E                     	;# 
   223  010C                     	;# 
   224  010E                     	;# 
   225  0111                     	;# 
   226  0112                     	;# 
   227  0113                     	;# 
   228  0114                     	;# 
   229  0115                     	;# 
   230  0116                     	;# 
   231  0117                     	;# 
   232  0118                     	;# 
   233  0119                     	;# 
   234  011A                     	;# 
   235  011B                     	;# 
   236  011D                     	;# 
   237  011D                     	;# 
   238  018C                     	;# 
   239  018E                     	;# 
   240  0191                     	;# 
   241  0191                     	;# 
   242  0192                     	;# 
   243  0193                     	;# 
   244  0193                     	;# 
   245  0193                     	;# 
   246  0194                     	;# 
   247  0195                     	;# 
   248  0196                     	;# 
   249  0199                     	;# 
   250  019A                     	;# 
   251  019B                     	;# 
   252  019B                     	;# 
   253  019B                     	;# 
   254  019B                     	;# 
   255  019C                     	;# 
   256  019C                     	;# 
   257  019D                     	;# 
   258  019E                     	;# 
   259  019F                     	;# 
   260  020C                     	;# 
   261  020E                     	;# 
   262  0211                     	;# 
   263  0211                     	;# 
   264  0212                     	;# 
   265  0212                     	;# 
   266  0213                     	;# 
   267  0213                     	;# 
   268  0214                     	;# 
   269  0214                     	;# 
   270  0215                     	;# 
   271  0215                     	;# 
   272  0215                     	;# 
   273  0216                     	;# 
   274  0216                     	;# 
   275  0217                     	;# 
   276  0217                     	;# 
   277  0291                     	;# 
   278  0291                     	;# 
   279  0292                     	;# 
   280  0293                     	;# 
   281  0294                     	;# 
   282  0295                     	;# 
   283  0295                     	;# 
   284  0296                     	;# 
   285  0391                     	;# 
   286  0392                     	;# 
   287  0393                     	;# 
   288  039A                     	;# 
   289  039C                     	;# 
   290  039D                     	;# 
   291  039E                     	;# 
   292  039F                     	;# 
   293  0FE4                     	;# 
   294  0FE5                     	;# 
   295  0FE6                     	;# 
   296  0FE7                     	;# 
   297  0FE8                     	;# 
   298  0FE9                     	;# 
   299  0FEA                     	;# 
   300  0FEB                     	;# 
   301  0FED                     	;# 
   302  0FEE                     	;# 
   303  0FEF                     	;# 
   304  0000                     	;# 
   305  0001                     	;# 
   306  0002                     	;# 
   307  0003                     	;# 
   308  0004                     	;# 
   309  0005                     	;# 
   310  0006                     	;# 
   311  0007                     	;# 
   312  0008                     	;# 
   313  0009                     	;# 
   314  000A                     	;# 
   315  000B                     	;# 
   316  000C                     	;# 
   317  000E                     	;# 
   318  0011                     	;# 
   319  0012                     	;# 
   320  0015                     	;# 
   321  0016                     	;# 
   322  0016                     	;# 
   323  0017                     	;# 
   324  0018                     	;# 
   325  0019                     	;# 
   326  001A                     	;# 
   327  001B                     	;# 
   328  001C                     	;# 
   329  001E                     	;# 
   330  001F                     	;# 
   331  008C                     	;# 
   332  008E                     	;# 
   333  0091                     	;# 
   334  0092                     	;# 
   335  0095                     	;# 
   336  0096                     	;# 
   337  0097                     	;# 
   338  0098                     	;# 
   339  0099                     	;# 
   340  009A                     	;# 
   341  009B                     	;# 
   342  009B                     	;# 
   343  009C                     	;# 
   344  009D                     	;# 
   345  009E                     	;# 
   346  010C                     	;# 
   347  010E                     	;# 
   348  0111                     	;# 
   349  0112                     	;# 
   350  0113                     	;# 
   351  0114                     	;# 
   352  0115                     	;# 
   353  0116                     	;# 
   354  0117                     	;# 
   355  0118                     	;# 
   356  0119                     	;# 
   357  011A                     	;# 
   358  011B                     	;# 
   359  011D                     	;# 
   360  011D                     	;# 
   361  018C                     	;# 
   362  018E                     	;# 
   363  0191                     	;# 
   364  0191                     	;# 
   365  0192                     	;# 
   366  0193                     	;# 
   367  0193                     	;# 
   368  0193                     	;# 
   369  0194                     	;# 
   370  0195                     	;# 
   371  0196                     	;# 
   372  0199                     	;# 
   373  019A                     	;# 
   374  019B                     	;# 
   375  019B                     	;# 
   376  019B                     	;# 
   377  019B                     	;# 
   378  019C                     	;# 
   379  019C                     	;# 
   380  019D                     	;# 
   381  019E                     	;# 
   382  019F                     	;# 
   383  020C                     	;# 
   384  020E                     	;# 
   385  0211                     	;# 
   386  0211                     	;# 
   387  0212                     	;# 
   388  0212                     	;# 
   389  0213                     	;# 
   390  0213                     	;# 
   391  0214                     	;# 
   392  0214                     	;# 
   393  0215                     	;# 
   394  0215                     	;# 
   395  0215                     	;# 
   396  0216                     	;# 
   397  0216                     	;# 
   398  0217                     	;# 
   399  0217                     	;# 
   400  0291                     	;# 
   401  0291                     	;# 
   402  0292                     	;# 
   403  0293                     	;# 
   404  0294                     	;# 
   405  0295                     	;# 
   406  0295                     	;# 
   407  0296                     	;# 
   408  0391                     	;# 
   409  0392                     	;# 
   410  0393                     	;# 
   411  039A                     	;# 
   412  039C                     	;# 
   413  039D                     	;# 
   414  039E                     	;# 
   415  039F                     	;# 
   416  0FE4                     	;# 
   417  0FE5                     	;# 
   418  0FE6                     	;# 
   419  0FE7                     	;# 
   420  0FE8                     	;# 
   421  0FE9                     	;# 
   422  0FEA                     	;# 
   423  0FEB                     	;# 
   424  0FED                     	;# 
   425  0FEE                     	;# 
   426  0FEF                     	;# 
   427  0000                     	;# 
   428  0001                     	;# 
   429  0002                     	;# 
   430  0003                     	;# 
   431  0004                     	;# 
   432  0005                     	;# 
   433  0006                     	;# 
   434  0007                     	;# 
   435  0008                     	;# 
   436  0009                     	;# 
   437  000A                     	;# 
   438  000B                     	;# 
   439  000C                     	;# 
   440  000E                     	;# 
   441  0011                     	;# 
   442  0012                     	;# 
   443  0015                     	;# 
   444  0016                     	;# 
   445  0016                     	;# 
   446  0017                     	;# 
   447  0018                     	;# 
   448  0019                     	;# 
   449  001A                     	;# 
   450  001B                     	;# 
   451  001C                     	;# 
   452  001E                     	;# 
   453  001F                     	;# 
   454  008C                     	;# 
   455  008E                     	;# 
   456  0091                     	;# 
   457  0092                     	;# 
   458  0095                     	;# 
   459  0096                     	;# 
   460  0097                     	;# 
   461  0098                     	;# 
   462  0099                     	;# 
   463  009A                     	;# 
   464  009B                     	;# 
   465  009B                     	;# 
   466  009C                     	;# 
   467  009D                     	;# 
   468  009E                     	;# 
   469  010C                     	;# 
   470  010E                     	;# 
   471  0111                     	;# 
   472  0112                     	;# 
   473  0113                     	;# 
   474  0114                     	;# 
   475  0115                     	;# 
   476  0116                     	;# 
   477  0117                     	;# 
   478  0118                     	;# 
   479  0119                     	;# 
   480  011A                     	;# 
   481  011B                     	;# 
   482  011D                     	;# 
   483  011D                     	;# 
   484  018C                     	;# 
   485  018E                     	;# 
   486  0191                     	;# 
   487  0191                     	;# 
   488  0192                     	;# 
   489  0193                     	;# 
   490  0193                     	;# 
   491  0193                     	;# 
   492  0194                     	;# 
   493  0195                     	;# 
   494  0196                     	;# 
   495  0199                     	;# 
   496  019A                     	;# 
   497  019B                     	;# 
   498  019B                     	;# 
   499  019B                     	;# 
   500  019B                     	;# 
   501  019C                     	;# 
   502  019C                     	;# 
   503  019D                     	;# 
   504  019E                     	;# 
   505  019F                     	;# 
   506  020C                     	;# 
   507  020E                     	;# 
   508  0211                     	;# 
   509  0211                     	;# 
   510  0212                     	;# 
   511  0212                     	;# 
   512  0213                     	;# 
   513  0213                     	;# 
   514  0214                     	;# 
   515  0214                     	;# 
   516  0215                     	;# 
   517  0215                     	;# 
   518  0215                     	;# 
   519  0216                     	;# 
   520  0216                     	;# 
   521  0217                     	;# 
   522  0217                     	;# 
   523  0291                     	;# 
   524  0291                     	;# 
   525  0292                     	;# 
   526  0293                     	;# 
   527  0294                     	;# 
   528  0295                     	;# 
   529  0295                     	;# 
   530  0296                     	;# 
   531  0391                     	;# 
   532  0392                     	;# 
   533  0393                     	;# 
   534  039A                     	;# 
   535  039C                     	;# 
   536  039D                     	;# 
   537  039E                     	;# 
   538  039F                     	;# 
   539  0FE4                     	;# 
   540  0FE5                     	;# 
   541  0FE6                     	;# 
   542  0FE7                     	;# 
   543  0FE8                     	;# 
   544  0FE9                     	;# 
   545  0FEA                     	;# 
   546  0FEB                     	;# 
   547  0FED                     	;# 
   548  0FEE                     	;# 
   549  0FEF                     	;# 
   550  0000                     	;# 
   551  0001                     	;# 
   552  0002                     	;# 
   553  0003                     	;# 
   554  0004                     	;# 
   555  0005                     	;# 
   556  0006                     	;# 
   557  0007                     	;# 
   558  0008                     	;# 
   559  0009                     	;# 
   560  000A                     	;# 
   561  000B                     	;# 
   562  000C                     	;# 
   563  000E                     	;# 
   564  0011                     	;# 
   565  0012                     	;# 
   566  0015                     	;# 
   567  0016                     	;# 
   568  0016                     	;# 
   569  0017                     	;# 
   570  0018                     	;# 
   571  0019                     	;# 
   572  001A                     	;# 
   573  001B                     	;# 
   574  001C                     	;# 
   575  001E                     	;# 
   576  001F                     	;# 
   577  008C                     	;# 
   578  008E                     	;# 
   579  0091                     	;# 
   580  0092                     	;# 
   581  0095                     	;# 
   582  0096                     	;# 
   583  0097                     	;# 
   584  0098                     	;# 
   585  0099                     	;# 
   586  009A                     	;# 
   587  009B                     	;# 
   588  009B                     	;# 
   589  009C                     	;# 
   590  009D                     	;# 
   591  009E                     	;# 
   592  010C                     	;# 
   593  010E                     	;# 
   594  0111                     	;# 
   595  0112                     	;# 
   596  0113                     	;# 
   597  0114                     	;# 
   598  0115                     	;# 
   599  0116                     	;# 
   600  0117                     	;# 
   601  0118                     	;# 
   602  0119                     	;# 
   603  011A                     	;# 
   604  011B                     	;# 
   605  011D                     	;# 
   606  011D                     	;# 
   607  018C                     	;# 
   608  018E                     	;# 
   609  0191                     	;# 
   610  0191                     	;# 
   611  0192                     	;# 
   612  0193                     	;# 
   613  0193                     	;# 
   614  0193                     	;# 
   615  0194                     	;# 
   616  0195                     	;# 
   617  0196                     	;# 
   618  0199                     	;# 
   619  019A                     	;# 
   620  019B                     	;# 
   621  019B                     	;# 
   622  019B                     	;# 
   623  019B                     	;# 
   624  019C                     	;# 
   625  019C                     	;# 
   626  019D                     	;# 
   627  019E                     	;# 
   628  019F                     	;# 
   629  020C                     	;# 
   630  020E                     	;# 
   631  0211                     	;# 
   632  0211                     	;# 
   633  0212                     	;# 
   634  0212                     	;# 
   635  0213                     	;# 
   636  0213                     	;# 
   637  0214                     	;# 
   638  0214                     	;# 
   639  0215                     	;# 
   640  0215                     	;# 
   641  0215                     	;# 
   642  0216                     	;# 
   643  0216                     	;# 
   644  0217                     	;# 
   645  0217                     	;# 
   646  0291                     	;# 
   647  0291                     	;# 
   648  0292                     	;# 
   649  0293                     	;# 
   650  0294                     	;# 
   651  0295                     	;# 
   652  0295                     	;# 
   653  0296                     	;# 
   654  0391                     	;# 
   655  0392                     	;# 
   656  0393                     	;# 
   657  039A                     	;# 
   658  039C                     	;# 
   659  039D                     	;# 
   660  039E                     	;# 
   661  039F                     	;# 
   662  0FE4                     	;# 
   663  0FE5                     	;# 
   664  0FE6                     	;# 
   665  0FE7                     	;# 
   666  0FE8                     	;# 
   667  0FE9                     	;# 
   668  0FEA                     	;# 
   669  0FEB                     	;# 
   670  0FED                     	;# 
   671  0FEE                     	;# 
   672  0FEF                     	;# 
   673  0000                     	;# 
   674  0001                     	;# 
   675  0002                     	;# 
   676  0003                     	;# 
   677  0004                     	;# 
   678  0005                     	;# 
   679  0006                     	;# 
   680  0007                     	;# 
   681  0008                     	;# 
   682  0009                     	;# 
   683  000A                     	;# 
   684  000B                     	;# 
   685  000C                     	;# 
   686  000E                     	;# 
   687  0011                     	;# 
   688  0012                     	;# 
   689  0015                     	;# 
   690  0016                     	;# 
   691  0016                     	;# 
   692  0017                     	;# 
   693  0018                     	;# 
   694  0019                     	;# 
   695  001A                     	;# 
   696  001B                     	;# 
   697  001C                     	;# 
   698  001E                     	;# 
   699  001F                     	;# 
   700  008C                     	;# 
   701  008E                     	;# 
   702  0091                     	;# 
   703  0092                     	;# 
   704  0095                     	;# 
   705  0096                     	;# 
   706  0097                     	;# 
   707  0098                     	;# 
   708  0099                     	;# 
   709  009A                     	;# 
   710  009B                     	;# 
   711  009B                     	;# 
   712  009C                     	;# 
   713  009D                     	;# 
   714  009E                     	;# 
   715  010C                     	;# 
   716  010E                     	;# 
   717  0111                     	;# 
   718  0112                     	;# 
   719  0113                     	;# 
   720  0114                     	;# 
   721  0115                     	;# 
   722  0116                     	;# 
   723  0117                     	;# 
   724  0118                     	;# 
   725  0119                     	;# 
   726  011A                     	;# 
   727  011B                     	;# 
   728  011D                     	;# 
   729  011D                     	;# 
   730  018C                     	;# 
   731  018E                     	;# 
   732  0191                     	;# 
   733  0191                     	;# 
   734  0192                     	;# 
   735  0193                     	;# 
   736  0193                     	;# 
   737  0193                     	;# 
   738  0194                     	;# 
   739  0195                     	;# 
   740  0196                     	;# 
   741  0199                     	;# 
   742  019A                     	;# 
   743  019B                     	;# 
   744  019B                     	;# 
   745  019B                     	;# 
   746  019B                     	;# 
   747  019C                     	;# 
   748  019C                     	;# 
   749  019D                     	;# 
   750  019E                     	;# 
   751  019F                     	;# 
   752  020C                     	;# 
   753  020E                     	;# 
   754  0211                     	;# 
   755  0211                     	;# 
   756  0212                     	;# 
   757  0212                     	;# 
   758  0213                     	;# 
   759  0213                     	;# 
   760  0214                     	;# 
   761  0214                     	;# 
   762  0215                     	;# 
   763  0215                     	;# 
   764  0215                     	;# 
   765  0216                     	;# 
   766  0216                     	;# 
   767  0217                     	;# 
   768  0217                     	;# 
   769  0291                     	;# 
   770  0291                     	;# 
   771  0292                     	;# 
   772  0293                     	;# 
   773  0294                     	;# 
   774  0295                     	;# 
   775  0295                     	;# 
   776  0296                     	;# 
   777  0391                     	;# 
   778  0392                     	;# 
   779  0393                     	;# 
   780  039A                     	;# 
   781  039C                     	;# 
   782  039D                     	;# 
   783  039E                     	;# 
   784  039F                     	;# 
   785  0FE4                     	;# 
   786  0FE5                     	;# 
   787  0FE6                     	;# 
   788  0FE7                     	;# 
   789  0FE8                     	;# 
   790  0FE9                     	;# 
   791  0FEA                     	;# 
   792  0FEB                     	;# 
   793  0FED                     	;# 
   794  0FEE                     	;# 
   795  0FEF                     	;# 
   796  0000                     	;# 
   797  0001                     	;# 
   798  0002                     	;# 
   799  0003                     	;# 
   800  0004                     	;# 
   801  0005                     	;# 
   802  0006                     	;# 
   803  0007                     	;# 
   804  0008                     	;# 
   805  0009                     	;# 
   806  000A                     	;# 
   807  000B                     	;# 
   808  000C                     	;# 
   809  000E                     	;# 
   810  0011                     	;# 
   811  0012                     	;# 
   812  0015                     	;# 
   813  0016                     	;# 
   814  0016                     	;# 
   815  0017                     	;# 
   816  0018                     	;# 
   817  0019                     	;# 
   818  001A                     	;# 
   819  001B                     	;# 
   820  001C                     	;# 
   821  001E                     	;# 
   822  001F                     	;# 
   823  008C                     	;# 
   824  008E                     	;# 
   825  0091                     	;# 
   826  0092                     	;# 
   827  0095                     	;# 
   828  0096                     	;# 
   829  0097                     	;# 
   830  0098                     	;# 
   831  0099                     	;# 
   832  009A                     	;# 
   833  009B                     	;# 
   834  009B                     	;# 
   835  009C                     	;# 
   836  009D                     	;# 
   837  009E                     	;# 
   838  010C                     	;# 
   839  010E                     	;# 
   840  0111                     	;# 
   841  0112                     	;# 
   842  0113                     	;# 
   843  0114                     	;# 
   844  0115                     	;# 
   845  0116                     	;# 
   846  0117                     	;# 
   847  0118                     	;# 
   848  0119                     	;# 
   849  011A                     	;# 
   850  011B                     	;# 
   851  011D                     	;# 
   852  011D                     	;# 
   853  018C                     	;# 
   854  018E                     	;# 
   855  0191                     	;# 
   856  0191                     	;# 
   857  0192                     	;# 
   858  0193                     	;# 
   859  0193                     	;# 
   860  0193                     	;# 
   861  0194                     	;# 
   862  0195                     	;# 
   863  0196                     	;# 
   864  0199                     	;# 
   865  019A                     	;# 
   866  019B                     	;# 
   867  019B                     	;# 
   868  019B                     	;# 
   869  019B                     	;# 
   870  019C                     	;# 
   871  019C                     	;# 
   872  019D                     	;# 
   873  019E                     	;# 
   874  019F                     	;# 
   875  020C                     	;# 
   876  020E                     	;# 
   877  0211                     	;# 
   878  0211                     	;# 
   879  0212                     	;# 
   880  0212                     	;# 
   881  0213                     	;# 
   882  0213                     	;# 
   883  0214                     	;# 
   884  0214                     	;# 
   885  0215                     	;# 
   886  0215                     	;# 
   887  0215                     	;# 
   888  0216                     	;# 
   889  0216                     	;# 
   890  0217                     	;# 
   891  0217                     	;# 
   892  0291                     	;# 
   893  0291                     	;# 
   894  0292                     	;# 
   895  0293                     	;# 
   896  0294                     	;# 
   897  0295                     	;# 
   898  0295                     	;# 
   899  0296                     	;# 
   900  0391                     	;# 
   901  0392                     	;# 
   902  0393                     	;# 
   903  039A                     	;# 
   904  039C                     	;# 
   905  039D                     	;# 
   906  039E                     	;# 
   907  039F                     	;# 
   908  0FE4                     	;# 
   909  0FE5                     	;# 
   910  0FE6                     	;# 
   911  0FE7                     	;# 
   912  0FE8                     	;# 
   913  0FE9                     	;# 
   914  0FEA                     	;# 
   915  0FEB                     	;# 
   916  0FED                     	;# 
   917  0FEE                     	;# 
   918  0FEF                     	;# 
   919  0000                     	;# 
   920  0001                     	;# 
   921  0002                     	;# 
   922  0003                     	;# 
   923  0004                     	;# 
   924  0005                     	;# 
   925  0006                     	;# 
   926  0007                     	;# 
   927  0008                     	;# 
   928  0009                     	;# 
   929  000A                     	;# 
   930  000B                     	;# 
   931  000C                     	;# 
   932  000E                     	;# 
   933  0011                     	;# 
   934  0012                     	;# 
   935  0015                     	;# 
   936  0016                     	;# 
   937  0016                     	;# 
   938  0017                     	;# 
   939  0018                     	;# 
   940  0019                     	;# 
   941  001A                     	;# 
   942  001B                     	;# 
   943  001C                     	;# 
   944  001E                     	;# 
   945  001F                     	;# 
   946  008C                     	;# 
   947  008E                     	;# 
   948  0091                     	;# 
   949  0092                     	;# 
   950  0095                     	;# 
   951  0096                     	;# 
   952  0097                     	;# 
   953  0098                     	;# 
   954  0099                     	;# 
   955  009A                     	;# 
   956  009B                     	;# 
   957  009B                     	;# 
   958  009C                     	;# 
   959  009D                     	;# 
   960  009E                     	;# 
   961  010C                     	;# 
   962  010E                     	;# 
   963  0111                     	;# 
   964  0112                     	;# 
   965  0113                     	;# 
   966  0114                     	;# 
   967  0115                     	;# 
   968  0116                     	;# 
   969  0117                     	;# 
   970  0118                     	;# 
   971  0119                     	;# 
   972  011A                     	;# 
   973  011B                     	;# 
   974  011D                     	;# 
   975  011D                     	;# 
   976  018C                     	;# 
   977  018E                     	;# 
   978  0191                     	;# 
   979  0191                     	;# 
   980  0192                     	;# 
   981  0193                     	;# 
   982  0193                     	;# 
   983  0193                     	;# 
   984  0194                     	;# 
   985  0195                     	;# 
   986  0196                     	;# 
   987  0199                     	;# 
   988  019A                     	;# 
   989  019B                     	;# 
   990  019B                     	;# 
   991  019B                     	;# 
   992  019B                     	;# 
   993  019C                     	;# 
   994  019C                     	;# 
   995  019D                     	;# 
   996  019E                     	;# 
   997  019F                     	;# 
   998  020C                     	;# 
   999  020E                     	;# 
  1000  0211                     	;# 
  1001  0211                     	;# 
  1002  0212                     	;# 
  1003  0212                     	;# 
  1004  0213                     	;# 
  1005  0213                     	;# 
  1006  0214                     	;# 
  1007  0214                     	;# 
  1008  0215                     	;# 
  1009  0215                     	;# 
  1010  0215                     	;# 
  1011  0216                     	;# 
  1012  0216                     	;# 
  1013  0217                     	;# 
  1014  0217                     	;# 
  1015  0291                     	;# 
  1016  0291                     	;# 
  1017  0292                     	;# 
  1018  0293                     	;# 
  1019  0294                     	;# 
  1020  0295                     	;# 
  1021  0295                     	;# 
  1022  0296                     	;# 
  1023  0391                     	;# 
  1024  0392                     	;# 
  1025  0393                     	;# 
  1026  039A                     	;# 
  1027  039C                     	;# 
  1028  039D                     	;# 
  1029  039E                     	;# 
  1030  039F                     	;# 
  1031  0FE4                     	;# 
  1032  0FE5                     	;# 
  1033  0FE6                     	;# 
  1034  0FE7                     	;# 
  1035  0FE8                     	;# 
  1036  0FE9                     	;# 
  1037  0FEA                     	;# 
  1038  0FEB                     	;# 
  1039  0FED                     	;# 
  1040  0FEE                     	;# 
  1041  0FEF                     	;# 
  1042                           
  1043                           	psect	idataCOMMON
  1044  0361                     __pidataCOMMON:	
  1045                           
  1046                           ;initializer for ISR@i
  1047  0361  3401               	retlw	1
  1048  000E                     _PORTC	set	14
  1049  000C                     _PORTA	set	12
  1050  0015                     _TMR0	set	21
  1051  005D                     _TMR0IE	set	93
  1052  005E                     _PEIE	set	94
  1053  005F                     _GIE	set	95
  1054  005A                     _TMR0IF	set	90
  1055  009B                     _ADRES	set	155
  1056  0099                     _OSCCON	set	153
  1057  009B                     _ADRESL	set	155
  1058  009C                     _ADRESH	set	156
  1059  008E                     _TRISC	set	142
  1060  008C                     _TRISA	set	140
  1061  009E                     _ADCON1	set	158
  1062  009D                     _ADCON0	set	157
  1063  0095                     _OPTION_REG	set	149
  1064  0475                     _TRISC5	set	1141
  1065  0464                     _TRISA4	set	1124
  1066  0465                     _TRISA5	set	1125
  1067  0472                     _TRISC2	set	1138
  1068  0471                     _TRISC1	set	1137
  1069  0470                     _TRISC0	set	1136
  1070  0462                     _TRISA2	set	1122
  1071  0461                     _TRISA1	set	1121
  1072  0474                     _TRISC4	set	1140
  1073  0473                     _TRISC3	set	1139
  1074  04E9                     _GO	set	1257
  1075  04E8                     _ADON	set	1256
  1076  0460                     _TRISA0	set	1120
  1077  010E                     _LATC	set	270
  1078  010C                     _LATA	set	268
  1079  0875                     _LATC5	set	2165
  1080  0864                     _LATA4	set	2148
  1081  0865                     _LATA5	set	2149
  1082  0872                     _LATC2	set	2162
  1083  0871                     _LATC1	set	2161
  1084  0870                     _LATC0	set	2160
  1085  0862                     _LATA2	set	2146
  1086  0861                     _LATA1	set	2145
  1087  0874                     _LATC4	set	2164
  1088  0873                     _LATC3	set	2163
  1089  018E                     _ANSELC	set	398
  1090  018C                     _ANSELA	set	396
  1091  0C60                     _ANSA0	set	3168
  1092                           
  1093                           ; #config settings
  1094  0000                     
  1095                           	psect	cinit
  1096  0055                     start_initialization:	
  1097  0055                     __initialization:	
  1098                           
  1099                           ; Initialize objects allocated to COMMON
  1100  0055  2361               	fcall	__pidataCOMMON	;fetch initializer
  1101  0056  00FA               	movwf	__pdataCOMMON& (0+127)
  1102                           
  1103                           ; Clear objects allocated to BANK0
  1104  0057  01B4               	clrf	__pbssBANK0& (0+127)
  1105  0058  01B5               	clrf	(__pbssBANK0+1)& (0+127)
  1106  0059  01B6               	clrf	(__pbssBANK0+2)& (0+127)
  1107  005A  01B7               	clrf	(__pbssBANK0+3)& (0+127)
  1108  005B                     end_of_initialization:	
  1109                           ;End of C runtime variable initialization code
  1110                           
  1111  005B                     __end_of__initialization:	
  1112  005B  107E               	bcf	int$flags,0	;clear compiler interrupt flag (level 1)
  1113  005C  0020               	movlb	0
  1114  005D  29F9               	ljmp	_main	;jump to C main() function
  1115                           
  1116                           	psect	dataCOMMON
  1117  007A                     __pdataCOMMON:	
  1118  007A                     ISR@i:	
  1119  007A                     	ds	1
  1120                           
  1121                           	psect	bssBANK0
  1122  0034                     __pbssBANK0:	
  1123  0034                     _ds:	
  1124  0034                     	ds	4
  1125                           
  1126                           	psect	cstackCOMMON
  1127  0070                     __pcstackCOMMON:	
  1128  0070                     ?_FOSC_Init:	
  1129  0070                     ?_PORT_Init:	
  1130                           ; 1 bytes @ 0x0
  1131                           
  1132  0070                     ?_PORTA_Init:	
  1133                           ; 1 bytes @ 0x0
  1134                           
  1135  0070                     ?_PORTC_Init:	
  1136                           ; 1 bytes @ 0x0
  1137                           
  1138  0070                     ?_ISR:	
  1139                           ; 1 bytes @ 0x0
  1140                           
  1141  0070                     ?_TIME0_Init:	
  1142                           ; 1 bytes @ 0x0
  1143                           
  1144  0070                     ?_main:	
  1145                           ; 1 bytes @ 0x0
  1146                           
  1147  0070                     ?_display_place:	
  1148                           ; 1 bytes @ 0x0
  1149                           
  1150  0070                     ??_display_place:	
  1151                           ; 1 bytes @ 0x0
  1152                           
  1153                           
  1154                           ; 1 bytes @ 0x0
  1155  0070                     	ds	2
  1156  0072                     display_place@num:	
  1157                           
  1158                           ; 1 bytes @ 0x2
  1159  0072                     	ds	1
  1160  0073                     ?_display_2seg_hc:	
  1161  0073                     display_2seg_hc@dp:	
  1162                           ; 1 bytes @ 0x3
  1163                           
  1164                           
  1165                           ; 1 bytes @ 0x3
  1166  0073                     	ds	1
  1167  0074                     display_2seg_hc@seg:	
  1168                           
  1169                           ; 1 bytes @ 0x4
  1170  0074                     	ds	1
  1171  0075                     ??_display_2seg_hc:	
  1172                           
  1173                           ; 1 bytes @ 0x5
  1174  0075                     	ds	2
  1175  0077                     display_2seg_hc@num:	
  1176                           
  1177                           ; 1 bytes @ 0x7
  1178  0077                     	ds	1
  1179  0078                     ??_ISR:	
  1180                           
  1181                           ; 1 bytes @ 0x8
  1182  0078                     	ds	2
  1183                           
  1184                           	psect	cstackBANK0
  1185  0020                     __pcstackBANK0:	
  1186  0020                     ??_FOSC_Init:	
  1187  0020                     ??_PORT_Init:	
  1188                           ; 1 bytes @ 0x0
  1189                           
  1190  0020                     ??_PORTA_Init:	
  1191                           ; 1 bytes @ 0x0
  1192                           
  1193  0020                     ??_PORTC_Init:	
  1194                           ; 1 bytes @ 0x0
  1195                           
  1196  0020                     ??_TIME0_Init:	
  1197                           ; 1 bytes @ 0x0
  1198                           
  1199  0020                     ?_ADC_Read:	
  1200                           ; 1 bytes @ 0x0
  1201                           
  1202  0020                     ?___lwdiv:	
  1203                           ; 2 bytes @ 0x0
  1204                           
  1205  0020                     ___lwdiv@divisor:	
  1206                           ; 2 bytes @ 0x0
  1207                           
  1208                           
  1209                           ; 2 bytes @ 0x0
  1210  0020                     	ds	2
  1211  0022                     ??_ADC_Read:	
  1212  0022                     ___lwdiv@dividend:	
  1213                           ; 1 bytes @ 0x2
  1214                           
  1215                           
  1216                           ; 2 bytes @ 0x2
  1217  0022                     	ds	2
  1218  0024                     ??___lwdiv:	
  1219  0024                     ADC_Read@value:	
  1220                           ; 1 bytes @ 0x4
  1221                           
  1222                           
  1223                           ; 2 bytes @ 0x4
  1224  0024                     	ds	1
  1225  0025                     ___lwdiv@quotient:	
  1226                           
  1227                           ; 2 bytes @ 0x5
  1228  0025                     	ds	2
  1229  0027                     ___lwdiv@counter:	
  1230                           
  1231                           ; 1 bytes @ 0x7
  1232  0027                     	ds	1
  1233  0028                     ?___lwmod:	
  1234  0028                     ___lwmod@divisor:	
  1235                           ; 2 bytes @ 0x8
  1236                           
  1237                           
  1238                           ; 2 bytes @ 0x8
  1239  0028                     	ds	2
  1240  002A                     ___lwmod@dividend:	
  1241                           
  1242                           ; 2 bytes @ 0xA
  1243  002A                     	ds	2
  1244  002C                     ??___lwmod:	
  1245                           
  1246                           ; 1 bytes @ 0xC
  1247  002C                     	ds	1
  1248  002D                     ___lwmod@counter:	
  1249                           
  1250                           ; 1 bytes @ 0xD
  1251  002D                     	ds	1
  1252  002E                     ??_main:	
  1253                           
  1254                           ; 1 bytes @ 0xE
  1255  002E                     	ds	2
  1256  0030                     main@i:	
  1257                           
  1258                           ; 2 bytes @ 0x10
  1259  0030                     	ds	2
  1260  0032                     main@t:	
  1261                           
  1262                           ; 2 bytes @ 0x12
  1263  0032                     	ds	2
  1264                           
  1265                           	psect	maintext
  1266  01F9                     __pmaintext:	
  1267 ;;
  1268 ;;Main: autosize = 0, tempsize = 2, incstack = 0, save=0
  1269 ;;
  1270 ;; *************** function _main *****************
  1271 ;; Defined at:
  1272 ;;		line 54 in file "main.c"
  1273 ;; Parameters:    Size  Location     Type
  1274 ;;		None
  1275 ;; Auto vars:     Size  Location     Type
  1276 ;;  t               2   18[BANK0 ] unsigned int 
  1277 ;;  i               2   16[BANK0 ] unsigned int 
  1278 ;; Return value:  Size  Location     Type
  1279 ;;                  1    wreg      void 
  1280 ;; Registers used:
  1281 ;;		wreg, status,2, status,0, pclath, cstack
  1282 ;; Tracked objects:
  1283 ;;		On entry : B1F/0
  1284 ;;		On exit  : 0/0
  1285 ;;		Unchanged: 0/0
  1286 ;; Data sizes:     COMMON   BANK0   BANK1
  1287 ;;      Params:         0       0       0
  1288 ;;      Locals:         0       4       0
  1289 ;;      Temps:          0       2       0
  1290 ;;      Totals:         0       6       0
  1291 ;;Total ram usage:        6 bytes
  1292 ;; Hardware stack levels required when called:    5
  1293 ;; This function calls:
  1294 ;;		_ADC_Read
  1295 ;;		_FOSC_Init
  1296 ;;		_PORT_Init
  1297 ;;		_TIME0_Init
  1298 ;;		___lwdiv
  1299 ;;		___lwmod
  1300 ;; This function is called by:
  1301 ;;		Startup code after reset
  1302 ;; This function uses a non-reentrant model
  1303 ;;
  1304                           
  1305                           
  1306                           ;psect for function _main
  1307  01F9                     _main:	
  1308                           
  1309                           ;main.c: 56:     FOSC_Init();
  1310                           
  1311                           ;incstack = 0
  1312                           ; Regs used in _main: [wreg+status,2+status,0+pclath+cstack]
  1313  01F9  235A               	fcall	_FOSC_Init
  1314                           
  1315                           ;main.c: 57:     PORT_Init();
  1316  01FA  235E               	fcall	_PORT_Init
  1317                           
  1318                           ;main.c: 58:     TIME0_Init();
  1319  01FB  233E               	fcall	_TIME0_Init
  1320                           
  1321                           ;main.c: 60:     TRISA0 = 1;
  1322  01FC  0021               	movlb	1	; select bank1
  1323  01FD  140C               	bsf	12,0	;volatile
  1324                           
  1325                           ;main.c: 61:     ANSA0 = 1;
  1326  01FE  0023               	movlb	3	; select bank3
  1327  01FF  140C               	bsf	12,0	;volatile
  1328                           
  1329                           ;main.c: 62:     ADCON0 = 0B00000000;
  1330  0200  0021               	movlb	1	; select bank1
  1331  0201  019D               	clrf	29	;volatile
  1332                           
  1333                           ;main.c: 63:     ADCON1 = 0B11000000;
  1334  0202  30C0               	movlw	192
  1335  0203  009E               	movwf	30	;volatile
  1336  0204                     l1265:	
  1337                           
  1338                           ;main.c: 73:         ADON = 1;
  1339  0204  0021               	movlb	1	; select bank1
  1340  0205  141D               	bsf	29,0	;volatile
  1341                           
  1342                           ;main.c: 74:         _delay((unsigned long)((2)*(4000000/4000.0)));
  1343  0206  3003               	movlw	3
  1344  0207  0020               	movlb	0	; select bank0
  1345  0208  00AE               	movwf	??_main
  1346  0209  3097               	movlw	151
  1347  020A                     u1017:	
  1348  020A  0B89               	decfsz	9,f
  1349  020B  2A0A               	goto	u1017
  1350  020C  0BAE               	decfsz	??_main,f
  1351  020D  2A0A               	goto	u1017
  1352  020E  3200               	nop2
  1353                           
  1354                           ;main.c: 76:         i = ADC_Read();
  1355  020F  2319               	fcall	_ADC_Read
  1356  0210  0821               	movf	?_ADC_Read+1,w
  1357  0211  00B1               	movwf	main@i+1
  1358  0212  0820               	movf	?_ADC_Read,w
  1359  0213  00B0               	movwf	main@i
  1360                           
  1361                           ;main.c: 84:         t = i;
  1362  0214  0831               	movf	main@i+1,w
  1363  0215  00B3               	movwf	main@t+1
  1364  0216  0830               	movf	main@i,w
  1365  0217  00B2               	movwf	main@t
  1366                           
  1367                           ;main.c: 86:         GIE = 0;
  1368  0218  138B               	bcf	11,7	;volatile
  1369                           
  1370                           ;main.c: 88:         ds[0] = (t / 1000) % 10;
  1371  0219  300A               	movlw	10
  1372  021A  00A8               	movwf	___lwmod@divisor
  1373  021B  3000               	movlw	0
  1374  021C  00A9               	movwf	___lwmod@divisor+1
  1375  021D  30E8               	movlw	232
  1376  021E  00A0               	movwf	___lwdiv@divisor
  1377  021F  3003               	movlw	3
  1378  0220  00A1               	movwf	___lwdiv@divisor+1
  1379  0221  0833               	movf	main@t+1,w
  1380  0222  00A3               	movwf	___lwdiv@dividend+1
  1381  0223  0832               	movf	main@t,w
  1382  0224  00A2               	movwf	___lwdiv@dividend
  1383  0225  22B9               	fcall	___lwdiv
  1384  0226  0821               	movf	?___lwdiv+1,w
  1385  0227  00AB               	movwf	___lwmod@dividend+1
  1386  0228  0820               	movf	?___lwdiv,w
  1387  0229  00AA               	movwf	___lwmod@dividend
  1388  022A  22ED               	fcall	___lwmod
  1389  022B  0828               	movf	?___lwmod,w
  1390  022C  00AE               	movwf	??_main
  1391  022D  082E               	movf	??_main,w
  1392  022E  00B4               	movwf	_ds
  1393                           
  1394                           ;main.c: 89:         ds[1] = (t / 100) % 10;
  1395  022F  300A               	movlw	10
  1396  0230  00A8               	movwf	___lwmod@divisor
  1397  0231  3000               	movlw	0
  1398  0232  00A9               	movwf	___lwmod@divisor+1
  1399  0233  3064               	movlw	100
  1400  0234  00A0               	movwf	___lwdiv@divisor
  1401  0235  3000               	movlw	0
  1402  0236  00A1               	movwf	___lwdiv@divisor+1
  1403  0237  0833               	movf	main@t+1,w
  1404  0238  00A3               	movwf	___lwdiv@dividend+1
  1405  0239  0832               	movf	main@t,w
  1406  023A  00A2               	movwf	___lwdiv@dividend
  1407  023B  22B9               	fcall	___lwdiv
  1408  023C  0821               	movf	?___lwdiv+1,w
  1409  023D  00AB               	movwf	___lwmod@dividend+1
  1410  023E  0820               	movf	?___lwdiv,w
  1411  023F  00AA               	movwf	___lwmod@dividend
  1412  0240  22ED               	fcall	___lwmod
  1413  0241  0828               	movf	?___lwmod,w
  1414  0242  00AE               	movwf	??_main
  1415  0243  082E               	movf	??_main,w
  1416  0244  00B5               	movwf	_ds+1
  1417                           
  1418                           ;main.c: 90:         ds[2] = (t / 10) % 10;
  1419  0245  300A               	movlw	10
  1420  0246  00A8               	movwf	___lwmod@divisor
  1421  0247  3000               	movlw	0
  1422  0248  00A9               	movwf	___lwmod@divisor+1
  1423  0249  300A               	movlw	10
  1424  024A  00A0               	movwf	___lwdiv@divisor
  1425  024B  3000               	movlw	0
  1426  024C  00A1               	movwf	___lwdiv@divisor+1
  1427  024D  0833               	movf	main@t+1,w
  1428  024E  00A3               	movwf	___lwdiv@dividend+1
  1429  024F  0832               	movf	main@t,w
  1430  0250  00A2               	movwf	___lwdiv@dividend
  1431  0251  22B9               	fcall	___lwdiv
  1432  0252  0821               	movf	?___lwdiv+1,w
  1433  0253  00AB               	movwf	___lwmod@dividend+1
  1434  0254  0820               	movf	?___lwdiv,w
  1435  0255  00AA               	movwf	___lwmod@dividend
  1436  0256  22ED               	fcall	___lwmod
  1437  0257  0828               	movf	?___lwmod,w
  1438  0258  00AE               	movwf	??_main
  1439  0259  082E               	movf	??_main,w
  1440  025A  00B6               	movwf	_ds+2
  1441                           
  1442                           ;main.c: 91:         ds[3] = t % 10;
  1443  025B  300A               	movlw	10
  1444  025C  00A8               	movwf	___lwmod@divisor
  1445  025D  3000               	movlw	0
  1446  025E  00A9               	movwf	___lwmod@divisor+1
  1447  025F  0833               	movf	main@t+1,w
  1448  0260  00AB               	movwf	___lwmod@dividend+1
  1449  0261  0832               	movf	main@t,w
  1450  0262  00AA               	movwf	___lwmod@dividend
  1451  0263  22ED               	fcall	___lwmod
  1452  0264  0828               	movf	?___lwmod,w
  1453  0265  00AE               	movwf	??_main
  1454  0266  082E               	movf	??_main,w
  1455  0267  00B7               	movwf	_ds+3
  1456                           
  1457                           ;main.c: 92:         GIE = 1;
  1458  0268  178B               	bsf	11,7	;volatile
  1459                           
  1460                           ;main.c: 93:         _delay((unsigned long)((200)*(4000000/4000.0)));
  1461  0269  3002               	movlw	2
  1462  026A  0020               	movlb	0	; select bank0
  1463  026B  00AF               	movwf	??_main+1
  1464  026C  3004               	movlw	4
  1465  026D  00AE               	movwf	??_main
  1466  026E  30BA               	movlw	186
  1467  026F                     u1027:	
  1468  026F  0B89               	decfsz	9,f
  1469  0270  2A6F               	goto	u1027
  1470  0271  0BAE               	decfsz	??_main,f
  1471  0272  2A6F               	goto	u1027
  1472  0273  0BAF               	decfsz	??_main+1,f
  1473  0274  2A6F               	goto	u1027
  1474  0275  0000               	nop
  1475  0276  2A04               	goto	l1265
  1476  0277                     __end_of_main:	
  1477                           
  1478                           	psect	text1
  1479  02ED                     __ptext1:	
  1480 ;; *************** function ___lwmod *****************
  1481 ;; Defined at:
  1482 ;;		line 5 in file "C:\Program Files (x86)\Microchip\xc8\v2.10\pic\sources\c99\common\lwmod.c"
  1483 ;; Parameters:    Size  Location     Type
  1484 ;;  divisor         2    8[BANK0 ] unsigned int 
  1485 ;;  dividend        2   10[BANK0 ] unsigned int 
  1486 ;; Auto vars:     Size  Location     Type
  1487 ;;  counter         1   13[BANK0 ] unsigned char 
  1488 ;; Return value:  Size  Location     Type
  1489 ;;                  2    8[BANK0 ] unsigned int 
  1490 ;; Registers used:
  1491 ;;		wreg, status,2, status,0
  1492 ;; Tracked objects:
  1493 ;;		On entry : 1F/0
  1494 ;;		On exit  : 1F/0
  1495 ;;		Unchanged: 0/0
  1496 ;; Data sizes:     COMMON   BANK0   BANK1
  1497 ;;      Params:         0       4       0
  1498 ;;      Locals:         0       1       0
  1499 ;;      Temps:          0       1       0
  1500 ;;      Totals:         0       6       0
  1501 ;;Total ram usage:        6 bytes
  1502 ;; Hardware stack levels used:    1
  1503 ;; Hardware stack levels required when called:    3
  1504 ;; This function calls:
  1505 ;;		Nothing
  1506 ;; This function is called by:
  1507 ;;		_main
  1508 ;; This function uses a non-reentrant model
  1509 ;;
  1510                           
  1511                           
  1512                           ;psect for function ___lwmod
  1513  02ED                     ___lwmod:	
  1514                           
  1515                           ;incstack = 0
  1516                           ; Regs used in ___lwmod: [wreg+status,2+status,0]
  1517  02ED  0828               	movf	___lwmod@divisor,w
  1518  02EE  0429               	iorwf	___lwmod@divisor+1,w
  1519  02EF  1903               	btfsc	3,2
  1520  02F0  2B14               	goto	l1215
  1521  02F1  01AD               	clrf	___lwmod@counter
  1522  02F2  0AAD               	incf	___lwmod@counter,f
  1523  02F3                     l1205:	
  1524  02F3  1BA9               	btfsc	___lwmod@divisor+1,7
  1525  02F4  2AFF               	goto	l1207
  1526  02F5  3001               	movlw	1
  1527  02F6                     u945:	
  1528  02F6  35A8               	lslf	___lwmod@divisor,f
  1529  02F7  0DA9               	rlf	___lwmod@divisor+1,f
  1530  02F8  0B89               	decfsz	9,f
  1531  02F9  2AF6               	goto	u945
  1532  02FA  3001               	movlw	1
  1533  02FB  00AC               	movwf	??___lwmod
  1534  02FC  082C               	movf	??___lwmod,w
  1535  02FD  07AD               	addwf	___lwmod@counter,f
  1536  02FE  2AF3               	goto	l1205
  1537  02FF                     l1207:	
  1538  02FF  0829               	movf	___lwmod@divisor+1,w
  1539  0300  022B               	subwf	___lwmod@dividend+1,w
  1540  0301  1D03               	skipz
  1541  0302  2B05               	goto	u965
  1542  0303  0828               	movf	___lwmod@divisor,w
  1543  0304  022A               	subwf	___lwmod@dividend,w
  1544  0305                     u965:	
  1545  0305  1C03               	skipc
  1546  0306  2B0B               	goto	l1211
  1547  0307  0828               	movf	___lwmod@divisor,w
  1548  0308  02AA               	subwf	___lwmod@dividend,f
  1549  0309  0829               	movf	___lwmod@divisor+1,w
  1550  030A  3BAB               	subwfb	___lwmod@dividend+1,f
  1551  030B                     l1211:	
  1552  030B  3001               	movlw	1
  1553  030C                     u975:	
  1554  030C  36A9               	lsrf	___lwmod@divisor+1,f
  1555  030D  0CA8               	rrf	___lwmod@divisor,f
  1556  030E  0B89               	decfsz	9,f
  1557  030F  2B0C               	goto	u975
  1558  0310  3001               	movlw	1
  1559  0311  02AD               	subwf	___lwmod@counter,f
  1560  0312  1D03               	btfss	3,2
  1561  0313  2AFF               	goto	l1207
  1562  0314                     l1215:	
  1563  0314  082B               	movf	___lwmod@dividend+1,w
  1564  0315  00A9               	movwf	?___lwmod+1
  1565  0316  082A               	movf	___lwmod@dividend,w
  1566  0317  00A8               	movwf	?___lwmod
  1567  0318  0008               	return
  1568  0319                     __end_of___lwmod:	
  1569                           
  1570                           	psect	text2
  1571  02B9                     __ptext2:	
  1572 ;; *************** function ___lwdiv *****************
  1573 ;; Defined at:
  1574 ;;		line 5 in file "C:\Program Files (x86)\Microchip\xc8\v2.10\pic\sources\c99\common\lwdiv.c"
  1575 ;; Parameters:    Size  Location     Type
  1576 ;;  divisor         2    0[BANK0 ] unsigned int 
  1577 ;;  dividend        2    2[BANK0 ] unsigned int 
  1578 ;; Auto vars:     Size  Location     Type
  1579 ;;  quotient        2    5[BANK0 ] unsigned int 
  1580 ;;  counter         1    7[BANK0 ] unsigned char 
  1581 ;; Return value:  Size  Location     Type
  1582 ;;                  2    0[BANK0 ] unsigned int 
  1583 ;; Registers used:
  1584 ;;		wreg, status,2, status,0
  1585 ;; Tracked objects:
  1586 ;;		On entry : 1F/0
  1587 ;;		On exit  : 1F/0
  1588 ;;		Unchanged: 0/0
  1589 ;; Data sizes:     COMMON   BANK0   BANK1
  1590 ;;      Params:         0       4       0
  1591 ;;      Locals:         0       3       0
  1592 ;;      Temps:          0       1       0
  1593 ;;      Totals:         0       8       0
  1594 ;;Total ram usage:        8 bytes
  1595 ;; Hardware stack levels used:    1
  1596 ;; Hardware stack levels required when called:    3
  1597 ;; This function calls:
  1598 ;;		Nothing
  1599 ;; This function is called by:
  1600 ;;		_main
  1601 ;; This function uses a non-reentrant model
  1602 ;;
  1603                           
  1604                           
  1605                           ;psect for function ___lwdiv
  1606  02B9                     ___lwdiv:	
  1607                           
  1608                           ;incstack = 0
  1609                           ; Regs used in ___lwdiv: [wreg+status,2+status,0]
  1610  02B9  01A5               	clrf	___lwdiv@quotient
  1611  02BA  01A6               	clrf	___lwdiv@quotient+1
  1612  02BB  0820               	movf	___lwdiv@divisor,w
  1613  02BC  0421               	iorwf	___lwdiv@divisor+1,w
  1614  02BD  1903               	btfsc	3,2
  1615  02BE  2AE8               	goto	l1193
  1616  02BF  01A7               	clrf	___lwdiv@counter
  1617  02C0  0AA7               	incf	___lwdiv@counter,f
  1618  02C1                     l1181:	
  1619  02C1  1BA1               	btfsc	___lwdiv@divisor+1,7
  1620  02C2  2ACD               	goto	l1183
  1621  02C3  3001               	movlw	1
  1622  02C4                     u875:	
  1623  02C4  35A0               	lslf	___lwdiv@divisor,f
  1624  02C5  0DA1               	rlf	___lwdiv@divisor+1,f
  1625  02C6  0B89               	decfsz	9,f
  1626  02C7  2AC4               	goto	u875
  1627  02C8  3001               	movlw	1
  1628  02C9  00A4               	movwf	??___lwdiv
  1629  02CA  0824               	movf	??___lwdiv,w
  1630  02CB  07A7               	addwf	___lwdiv@counter,f
  1631  02CC  2AC1               	goto	l1181
  1632  02CD                     l1183:	
  1633  02CD  3001               	movlw	1
  1634  02CE                     u895:	
  1635  02CE  35A5               	lslf	___lwdiv@quotient,f
  1636  02CF  0DA6               	rlf	___lwdiv@quotient+1,f
  1637  02D0  0B89               	decfsz	9,f
  1638  02D1  2ACE               	goto	u895
  1639  02D2  0821               	movf	___lwdiv@divisor+1,w
  1640  02D3  0223               	subwf	___lwdiv@dividend+1,w
  1641  02D4  1D03               	skipz
  1642  02D5  2AD8               	goto	u905
  1643  02D6  0820               	movf	___lwdiv@divisor,w
  1644  02D7  0222               	subwf	___lwdiv@dividend,w
  1645  02D8                     u905:	
  1646  02D8  1C03               	skipc
  1647  02D9  2ADF               	goto	l1189
  1648  02DA  0820               	movf	___lwdiv@divisor,w
  1649  02DB  02A2               	subwf	___lwdiv@dividend,f
  1650  02DC  0821               	movf	___lwdiv@divisor+1,w
  1651  02DD  3BA3               	subwfb	___lwdiv@dividend+1,f
  1652  02DE  1425               	bsf	___lwdiv@quotient,0
  1653  02DF                     l1189:	
  1654  02DF  3001               	movlw	1
  1655  02E0                     u915:	
  1656  02E0  36A1               	lsrf	___lwdiv@divisor+1,f
  1657  02E1  0CA0               	rrf	___lwdiv@divisor,f
  1658  02E2  0B89               	decfsz	9,f
  1659  02E3  2AE0               	goto	u915
  1660  02E4  3001               	movlw	1
  1661  02E5  02A7               	subwf	___lwdiv@counter,f
  1662  02E6  1D03               	btfss	3,2
  1663  02E7  2ACD               	goto	l1183
  1664  02E8                     l1193:	
  1665  02E8  0826               	movf	___lwdiv@quotient+1,w
  1666  02E9  00A1               	movwf	?___lwdiv+1
  1667  02EA  0825               	movf	___lwdiv@quotient,w
  1668  02EB  00A0               	movwf	?___lwdiv
  1669  02EC  0008               	return
  1670  02ED                     __end_of___lwdiv:	
  1671                           
  1672                           	psect	text3
  1673  033E                     __ptext3:	
  1674 ;; *************** function _TIME0_Init *****************
  1675 ;; Defined at:
  1676 ;;		line 42 in file "main.c"
  1677 ;; Parameters:    Size  Location     Type
  1678 ;;		None
  1679 ;; Auto vars:     Size  Location     Type
  1680 ;;		None
  1681 ;; Return value:  Size  Location     Type
  1682 ;;                  1    wreg      void 
  1683 ;; Registers used:
  1684 ;;		wreg
  1685 ;; Tracked objects:
  1686 ;;		On entry : B1F/1
  1687 ;;		On exit  : B1F/0
  1688 ;;		Unchanged: B00/0
  1689 ;; Data sizes:     COMMON   BANK0   BANK1
  1690 ;;      Params:         0       0       0
  1691 ;;      Locals:         0       0       0
  1692 ;;      Temps:          0       0       0
  1693 ;;      Totals:         0       0       0
  1694 ;;Total ram usage:        0 bytes
  1695 ;; Hardware stack levels used:    1
  1696 ;; Hardware stack levels required when called:    3
  1697 ;; This function calls:
  1698 ;;		Nothing
  1699 ;; This function is called by:
  1700 ;;		_main
  1701 ;; This function uses a non-reentrant model
  1702 ;;
  1703                           
  1704                           
  1705                           ;psect for function _TIME0_Init
  1706  033E                     _TIME0_Init:	
  1707                           
  1708                           ;main.c: 44:     OPTION_REG = 0B10000111;
  1709                           
  1710                           ;incstack = 0
  1711                           ; Regs used in _TIME0_Init: [wreg]
  1712  033E  3087               	movlw	135
  1713  033F  0095               	movwf	21	;volatile
  1714                           
  1715                           ;main.c: 46:     GIE = 1;
  1716  0340  178B               	bsf	11,7	;volatile
  1717                           
  1718                           ;main.c: 47:     PEIE = 1;
  1719  0341  170B               	bsf	11,6	;volatile
  1720                           
  1721                           ;main.c: 48:     TMR0IE = 1;
  1722  0342  168B               	bsf	11,5	;volatile
  1723                           
  1724                           ;main.c: 49:     TMR0IF = 0;
  1725  0343  110B               	bcf	11,2	;volatile
  1726                           
  1727                           ;main.c: 51:     TMR0 = 210;
  1728  0344  30D2               	movlw	210
  1729  0345  0020               	movlb	0	; select bank0
  1730  0346  0095               	movwf	21	;volatile
  1731  0347  0008               	return
  1732  0348                     __end_of_TIME0_Init:	
  1733                           
  1734                           	psect	text4
  1735  035E                     __ptext4:	
  1736 ;; *************** function _PORT_Init *****************
  1737 ;; Defined at:
  1738 ;;		line 4 in file "../library/port.c"
  1739 ;; Parameters:    Size  Location     Type
  1740 ;;		None
  1741 ;; Auto vars:     Size  Location     Type
  1742 ;;		None
  1743 ;; Return value:  Size  Location     Type
  1744 ;;                  1    wreg      void 
  1745 ;; Registers used:
  1746 ;;		status,2, status,0, pclath, cstack
  1747 ;; Tracked objects:
  1748 ;;		On entry : B1F/1
  1749 ;;		On exit  : B1F/1
  1750 ;;		Unchanged: B00/0
  1751 ;; Data sizes:     COMMON   BANK0   BANK1
  1752 ;;      Params:         0       0       0
  1753 ;;      Locals:         0       0       0
  1754 ;;      Temps:          0       0       0
  1755 ;;      Totals:         0       0       0
  1756 ;;Total ram usage:        0 bytes
  1757 ;; Hardware stack levels used:    1
  1758 ;; Hardware stack levels required when called:    4
  1759 ;; This function calls:
  1760 ;;		_PORTA_Init
  1761 ;;		_PORTC_Init
  1762 ;; This function is called by:
  1763 ;;		_main
  1764 ;; This function uses a non-reentrant model
  1765 ;;
  1766                           
  1767                           
  1768                           ;psect for function _PORT_Init
  1769  035E                     _PORT_Init:	
  1770                           
  1771                           ;../library/port.c: 5:     PORTA_Init();
  1772                           
  1773                           ;incstack = 0
  1774                           ; Regs used in _PORT_Init: [status,2+status,0+pclath+cstack]
  1775  035E  2351               	fcall	_PORTA_Init
  1776                           
  1777                           ;../library/port.c: 6:     PORTC_Init();
  1778  035F  2348               	fcall	_PORTC_Init
  1779  0360  0008               	return
  1780  0361                     __end_of_PORT_Init:	
  1781                           
  1782                           	psect	text5
  1783  0348                     __ptext5:	
  1784 ;; *************** function _PORTC_Init *****************
  1785 ;; Defined at:
  1786 ;;		line 16 in file "../library/port.c"
  1787 ;; Parameters:    Size  Location     Type
  1788 ;;		None
  1789 ;; Auto vars:     Size  Location     Type
  1790 ;;		None
  1791 ;; Return value:  Size  Location     Type
  1792 ;;                  1    wreg      void 
  1793 ;; Registers used:
  1794 ;;		status,2
  1795 ;; Tracked objects:
  1796 ;;		On entry : B1F/1
  1797 ;;		On exit  : B1F/1
  1798 ;;		Unchanged: B00/0
  1799 ;; Data sizes:     COMMON   BANK0   BANK1
  1800 ;;      Params:         0       0       0
  1801 ;;      Locals:         0       0       0
  1802 ;;      Temps:          0       0       0
  1803 ;;      Totals:         0       0       0
  1804 ;;Total ram usage:        0 bytes
  1805 ;; Hardware stack levels used:    1
  1806 ;; Hardware stack levels required when called:    3
  1807 ;; This function calls:
  1808 ;;		Nothing
  1809 ;; This function is called by:
  1810 ;;		_PORT_Init
  1811 ;; This function uses a non-reentrant model
  1812 ;;
  1813                           
  1814                           
  1815                           ;psect for function _PORTC_Init
  1816  0348                     _PORTC_Init:	
  1817                           
  1818                           ;../library/port.c: 17:     PORTC = 0;
  1819                           
  1820                           ;incstack = 0
  1821                           ; Regs used in _PORTC_Init: [status,2]
  1822  0348  0020               	movlb	0	; select bank0
  1823  0349  018E               	clrf	14	;volatile
  1824                           
  1825                           ;../library/port.c: 18:     LATC = 0;
  1826  034A  0022               	movlb	2	; select bank2
  1827  034B  018E               	clrf	14	;volatile
  1828                           
  1829                           ;../library/port.c: 19:     ANSELC = 0;
  1830  034C  0023               	movlb	3	; select bank3
  1831  034D  018E               	clrf	14	;volatile
  1832                           
  1833                           ;../library/port.c: 20:     TRISC = 0;
  1834  034E  0021               	movlb	1	; select bank1
  1835  034F  018E               	clrf	14	;volatile
  1836  0350  0008               	return
  1837  0351                     __end_of_PORTC_Init:	
  1838                           
  1839                           	psect	text6
  1840  0351                     __ptext6:	
  1841 ;; *************** function _PORTA_Init *****************
  1842 ;; Defined at:
  1843 ;;		line 9 in file "../library/port.c"
  1844 ;; Parameters:    Size  Location     Type
  1845 ;;		None
  1846 ;; Auto vars:     Size  Location     Type
  1847 ;;		None
  1848 ;; Return value:  Size  Location     Type
  1849 ;;                  1    wreg      void 
  1850 ;; Registers used:
  1851 ;;		status,2
  1852 ;; Tracked objects:
  1853 ;;		On entry : B1F/1
  1854 ;;		On exit  : B1F/1
  1855 ;;		Unchanged: B00/0
  1856 ;; Data sizes:     COMMON   BANK0   BANK1
  1857 ;;      Params:         0       0       0
  1858 ;;      Locals:         0       0       0
  1859 ;;      Temps:          0       0       0
  1860 ;;      Totals:         0       0       0
  1861 ;;Total ram usage:        0 bytes
  1862 ;; Hardware stack levels used:    1
  1863 ;; Hardware stack levels required when called:    3
  1864 ;; This function calls:
  1865 ;;		Nothing
  1866 ;; This function is called by:
  1867 ;;		_PORT_Init
  1868 ;; This function uses a non-reentrant model
  1869 ;;
  1870                           
  1871                           
  1872                           ;psect for function _PORTA_Init
  1873  0351                     _PORTA_Init:	
  1874                           
  1875                           ;../library/port.c: 10:     PORTA = 0;
  1876                           
  1877                           ;incstack = 0
  1878                           ; Regs used in _PORTA_Init: [status,2]
  1879  0351  0020               	movlb	0	; select bank0
  1880  0352  018C               	clrf	12	;volatile
  1881                           
  1882                           ;../library/port.c: 11:     LATA = 0;
  1883  0353  0022               	movlb	2	; select bank2
  1884  0354  018C               	clrf	12	;volatile
  1885                           
  1886                           ;../library/port.c: 12:     ANSELA = 0;
  1887  0355  0023               	movlb	3	; select bank3
  1888  0356  018C               	clrf	12	;volatile
  1889                           
  1890                           ;../library/port.c: 13:     TRISA = 0;
  1891  0357  0021               	movlb	1	; select bank1
  1892  0358  018C               	clrf	12	;volatile
  1893  0359  0008               	return
  1894  035A                     __end_of_PORTA_Init:	
  1895                           
  1896                           	psect	text7
  1897  035A                     __ptext7:	
  1898 ;; *************** function _FOSC_Init *****************
  1899 ;; Defined at:
  1900 ;;		line 3 in file "../library/fosc.c"
  1901 ;; Parameters:    Size  Location     Type
  1902 ;;		None
  1903 ;; Auto vars:     Size  Location     Type
  1904 ;;		None
  1905 ;; Return value:  Size  Location     Type
  1906 ;;                  1    wreg      void 
  1907 ;; Registers used:
  1908 ;;		wreg
  1909 ;; Tracked objects:
  1910 ;;		On entry : B1F/0
  1911 ;;		On exit  : B1F/1
  1912 ;;		Unchanged: B00/0
  1913 ;; Data sizes:     COMMON   BANK0   BANK1
  1914 ;;      Params:         0       0       0
  1915 ;;      Locals:         0       0       0
  1916 ;;      Temps:          0       0       0
  1917 ;;      Totals:         0       0       0
  1918 ;;Total ram usage:        0 bytes
  1919 ;; Hardware stack levels used:    1
  1920 ;; Hardware stack levels required when called:    3
  1921 ;; This function calls:
  1922 ;;		Nothing
  1923 ;; This function is called by:
  1924 ;;		_main
  1925 ;; This function uses a non-reentrant model
  1926 ;;
  1927                           
  1928                           
  1929                           ;psect for function _FOSC_Init
  1930  035A                     _FOSC_Init:	
  1931                           
  1932                           ;../library/fosc.c: 4:     OSCCON = 0x68;
  1933                           
  1934                           ;incstack = 0
  1935                           ; Regs used in _FOSC_Init: [wreg]
  1936  035A  3068               	movlw	104
  1937  035B  0021               	movlb	1	; select bank1
  1938  035C  0099               	movwf	25	;volatile
  1939  035D  0008               	return
  1940  035E                     __end_of_FOSC_Init:	
  1941                           
  1942                           	psect	text8
  1943  0319                     __ptext8:	
  1944 ;; *************** function _ADC_Read *****************
  1945 ;; Defined at:
  1946 ;;		line 14 in file "../library/adc.c"
  1947 ;; Parameters:    Size  Location     Type
  1948 ;;		None
  1949 ;; Auto vars:     Size  Location     Type
  1950 ;;  value           2    4[BANK0 ] unsigned int 
  1951 ;; Return value:  Size  Location     Type
  1952 ;;                  2    0[BANK0 ] unsigned int 
  1953 ;; Registers used:
  1954 ;;		wreg, status,2
  1955 ;; Tracked objects:
  1956 ;;		On entry : 0/1
  1957 ;;		On exit  : 1F/0
  1958 ;;		Unchanged: 0/0
  1959 ;; Data sizes:     COMMON   BANK0   BANK1
  1960 ;;      Params:         0       2       0
  1961 ;;      Locals:         0       2       0
  1962 ;;      Temps:          0       2       0
  1963 ;;      Totals:         0       6       0
  1964 ;;Total ram usage:        6 bytes
  1965 ;; Hardware stack levels used:    1
  1966 ;; Hardware stack levels required when called:    3
  1967 ;; This function calls:
  1968 ;;		Nothing
  1969 ;; This function is called by:
  1970 ;;		_main
  1971 ;; This function uses a non-reentrant model
  1972 ;;
  1973                           
  1974                           
  1975                           ;psect for function _ADC_Read
  1976  0319                     _ADC_Read:	
  1977                           
  1978                           ;../library/adc.c: 17:     GO = 1;
  1979                           
  1980                           ;incstack = 0
  1981                           ; Regs used in _ADC_Read: [wreg+status,2]
  1982  0319  0021               	movlb	1	; select bank1
  1983  031A  149D               	bsf	29,1	;volatile
  1984  031B                     l110:	
  1985                           ;../library/adc.c: 18:     while(GO == 1);
  1986                           
  1987  031B  189D               	btfsc	29,1	;volatile
  1988  031C  2B1B               	goto	l110
  1989                           
  1990                           ;../library/adc.c: 19:     value = (unsigned int)ADRESH;
  1991  031D  081C               	movf	28,w	;volatile
  1992  031E  0020               	movlb	0	; select bank0
  1993  031F  00A2               	movwf	??_ADC_Read
  1994  0320  01A3               	clrf	??_ADC_Read+1
  1995  0321  0822               	movf	??_ADC_Read,w
  1996  0322  00A4               	movwf	ADC_Read@value
  1997  0323  0823               	movf	??_ADC_Read+1,w
  1998  0324  00A5               	movwf	ADC_Read@value+1
  1999                           
  2000                           ;../library/adc.c: 20:     value = value<<8;
  2001  0325  0824               	movf	ADC_Read@value,w
  2002  0326  00A3               	movwf	??_ADC_Read+1
  2003  0327  01A2               	clrf	??_ADC_Read
  2004  0328  0822               	movf	??_ADC_Read,w
  2005  0329  00A4               	movwf	ADC_Read@value
  2006  032A  0823               	movf	??_ADC_Read+1,w
  2007  032B  00A5               	movwf	ADC_Read@value+1
  2008                           
  2009                           ;../library/adc.c: 21:     value += ADRESL;
  2010  032C  0021               	movlb	1	; select bank1
  2011  032D  081B               	movf	27,w	;volatile
  2012  032E  0020               	movlb	0	; select bank0
  2013  032F  00A2               	movwf	??_ADC_Read
  2014  0330  01A3               	clrf	??_ADC_Read+1
  2015  0331  0822               	movf	??_ADC_Read,w
  2016  0332  07A4               	addwf	ADC_Read@value,f
  2017  0333  0823               	movf	??_ADC_Read+1,w
  2018  0334  3DA5               	addwfc	ADC_Read@value+1,f
  2019                           
  2020                           ;../library/adc.c: 22:     return ADRES;
  2021  0335  0021               	movlb	1	; select bank1
  2022  0336  081C               	movf	28,w	;volatile
  2023  0337  0020               	movlb	0	; select bank0
  2024  0338  00A1               	movwf	?_ADC_Read+1
  2025  0339  0021               	movlb	1	; select bank1
  2026  033A  081B               	movf	27,w	;volatile
  2027  033B  0020               	movlb	0	; select bank0
  2028  033C  00A0               	movwf	?_ADC_Read
  2029  033D  0008               	return
  2030  033E                     __end_of_ADC_Read:	
  2031                           
  2032                           	psect	intentry
  2033  0004                     __pintentry:	
  2034 ;; *************** function _ISR *****************
  2035 ;; Defined at:
  2036 ;;		line 13 in file "main.c"
  2037 ;; Parameters:    Size  Location     Type
  2038 ;;		None
  2039 ;; Auto vars:     Size  Location     Type
  2040 ;;		None
  2041 ;; Return value:  Size  Location     Type
  2042 ;;                  1    wreg      void 
  2043 ;; Registers used:
  2044 ;;		wreg, fsr0l, fsr0h, status,2, status,0, pclath, cstack
  2045 ;; Tracked objects:
  2046 ;;		On entry : 0/0
  2047 ;;		On exit  : 0/0
  2048 ;;		Unchanged: 0/0
  2049 ;; Data sizes:     COMMON   BANK0   BANK1
  2050 ;;      Params:         0       0       0
  2051 ;;      Locals:         0       0       0
  2052 ;;      Temps:          2       0       0
  2053 ;;      Totals:         2       0       0
  2054 ;;Total ram usage:        2 bytes
  2055 ;; Hardware stack levels used:    1
  2056 ;; Hardware stack levels required when called:    2
  2057 ;; This function calls:
  2058 ;;		_display_2seg_hc
  2059 ;; This function is called by:
  2060 ;;		Interrupt level 1
  2061 ;; This function uses a non-reentrant model
  2062 ;;
  2063                           
  2064  0004                     _ISR:	
  2065                           
  2066                           ;incstack = 0
  2067  0004  147E               	bsf	126,0	;set compiler interrupt flag (level 1)
  2068                           
  2069                           ; Regs used in _ISR: [wreg-fsr0h+status,2+status,0+pclath+cstack]
  2070  0005  3180               	pagesel	$
  2071                           
  2072                           ;main.c: 15:     unsigned char static i = 1;;main.c: 17:     if(TMR0IF) {
  2073  0006  1D0B               	btfss	11,2	;volatile
  2074  0007  2852               	goto	i1l49
  2075                           
  2076                           ;main.c: 19:         if(i > 4) i = 1;
  2077  0008  3005               	movlw	5
  2078  0009  027A               	subwf	ISR@i,w
  2079  000A  1C03               	skipc
  2080  000B  2834               	goto	i1l1235
  2081  000C  01FA               	clrf	ISR@i
  2082  000D  0AFA               	incf	ISR@i,f
  2083  000E  2834               	goto	i1l1235
  2084  000F                     i1l1225:	
  2085                           
  2086                           ;main.c: 23:                 display_2seg_hc(ds[0], 0, i);
  2087  000F  01F3               	clrf	display_2seg_hc@dp
  2088  0010  087A               	movf	ISR@i,w
  2089  0011  00F8               	movwf	??_ISR
  2090  0012  0878               	movf	??_ISR,w
  2091  0013  00F4               	movwf	display_2seg_hc@seg
  2092  0014  0020               	movlb	0	; select bank0
  2093  0015  0834               	movf	_ds,w
  2094  0016  2277               	fcall	_display_2seg_hc
  2095                           
  2096                           ;main.c: 24:                 break;
  2097  0017  284A               	goto	i1l1237
  2098  0018                     i1l1227:	
  2099                           
  2100                           ;main.c: 26:                 display_2seg_hc(ds[1], 1, i);
  2101  0018  01F3               	clrf	display_2seg_hc@dp
  2102  0019  0AF3               	incf	display_2seg_hc@dp,f
  2103  001A  087A               	movf	ISR@i,w
  2104  001B  00F8               	movwf	??_ISR
  2105  001C  0878               	movf	??_ISR,w
  2106  001D  00F4               	movwf	display_2seg_hc@seg
  2107  001E  0020               	movlb	0	; select bank0
  2108  001F  0835               	movf	_ds+1,w
  2109  0020  2277               	fcall	_display_2seg_hc
  2110                           
  2111                           ;main.c: 27:                 break;
  2112  0021  284A               	goto	i1l1237
  2113  0022                     i1l1229:	
  2114                           
  2115                           ;main.c: 29:                 display_2seg_hc(ds[2], 0, i);
  2116  0022  01F3               	clrf	display_2seg_hc@dp
  2117  0023  087A               	movf	ISR@i,w
  2118  0024  00F8               	movwf	??_ISR
  2119  0025  0878               	movf	??_ISR,w
  2120  0026  00F4               	movwf	display_2seg_hc@seg
  2121  0027  0020               	movlb	0	; select bank0
  2122  0028  0836               	movf	_ds+2,w
  2123  0029  2277               	fcall	_display_2seg_hc
  2124                           
  2125                           ;main.c: 30:                 break;
  2126  002A  284A               	goto	i1l1237
  2127  002B                     i1l1231:	
  2128                           
  2129                           ;main.c: 32:                 display_2seg_hc(ds[3], 0, i);
  2130  002B  01F3               	clrf	display_2seg_hc@dp
  2131  002C  087A               	movf	ISR@i,w
  2132  002D  00F8               	movwf	??_ISR
  2133  002E  0878               	movf	??_ISR,w
  2134  002F  00F4               	movwf	display_2seg_hc@seg
  2135  0030  0020               	movlb	0	; select bank0
  2136  0031  0837               	movf	_ds+3,w
  2137  0032  2277               	fcall	_display_2seg_hc
  2138                           
  2139                           ;main.c: 33:                 break;
  2140  0033  284A               	goto	i1l1237
  2141  0034                     i1l1235:	
  2142  0034  087A               	movf	ISR@i,w
  2143  0035  00F8               	movwf	??_ISR
  2144  0036  01F9               	clrf	??_ISR+1
  2145                           
  2146                           ; Switch on 2 bytes has been partitioned into a top level switch of size 1, and 1 sub-sw
      +                          itches
  2147                           ; Switch size 1, requested type "simple"
  2148                           ; Number of cases is 1, Range of values is 0 to 0
  2149                           ; switch strategies available:
  2150                           ; Name         Instructions Cycles
  2151                           ; simple_byte            4     3 (average)
  2152                           ; direct_byte            8     6 (fixed)
  2153                           ; jumptable            260     6 (fixed)
  2154                           ;	Chosen strategy is simple_byte
  2155  0037  0879               	movf	??_ISR+1,w
  2156  0038  3A00               	xorlw	0	; case 0
  2157  0039  1903               	skipnz
  2158  003A  283C               	goto	i1l1347
  2159  003B  284A               	goto	i1l1237
  2160  003C                     i1l1347:	
  2161                           
  2162                           ; Switch size 1, requested type "simple"
  2163                           ; Number of cases is 4, Range of values is 1 to 4
  2164                           ; switch strategies available:
  2165                           ; Name         Instructions Cycles
  2166                           ; simple_byte           13     7 (average)
  2167                           ; direct_byte           17     9 (fixed)
  2168                           ; jumptable            263     9 (fixed)
  2169                           ;	Chosen strategy is simple_byte
  2170  003C  0878               	movf	??_ISR,w
  2171  003D  3A01               	xorlw	1	; case 1
  2172  003E  1903               	skipnz
  2173  003F  280F               	goto	i1l1225
  2174  0040  3A03               	xorlw	3	; case 2
  2175  0041  1903               	skipnz
  2176  0042  2818               	goto	i1l1227
  2177  0043  3A01               	xorlw	1	; case 3
  2178  0044  1903               	skipnz
  2179  0045  2822               	goto	i1l1229
  2180  0046  3A07               	xorlw	7	; case 4
  2181  0047  1903               	skipnz
  2182  0048  282B               	goto	i1l1231
  2183  0049  284A               	goto	i1l1237
  2184  004A                     i1l1237:	
  2185                           
  2186                           ;main.c: 36:         i++;
  2187  004A  3001               	movlw	1
  2188  004B  00F8               	movwf	??_ISR
  2189  004C  0878               	movf	??_ISR,w
  2190  004D  07FA               	addwf	ISR@i,f
  2191                           
  2192                           ;main.c: 37:         TMR0IF = 0;
  2193  004E  110B               	bcf	11,2	;volatile
  2194                           
  2195                           ;main.c: 38:         TMR0 = 210;
  2196  004F  30D2               	movlw	210
  2197  0050  0020               	movlb	0	; select bank0
  2198  0051  0095               	movwf	21	;volatile
  2199  0052                     i1l49:	
  2200  0052  107E               	bcf	126,0	;clear compiler interrupt flag (level 1)
  2201  0053  0009               	retfie
  2202  0054                     __end_of_ISR:	
  2203                           
  2204                           	psect	text10
  2205  0277                     __ptext10:	
  2206 ;; *************** function _display_2seg_hc *****************
  2207 ;; Defined at:
  2208 ;;		line 154 in file "../library/ledtube.c"
  2209 ;; Parameters:    Size  Location     Type
  2210 ;;  num             1    wreg     unsigned char 
  2211 ;;  dp              1    3[COMMON] unsigned char 
  2212 ;;  seg             1    4[COMMON] unsigned char 
  2213 ;; Auto vars:     Size  Location     Type
  2214 ;;  num             1    7[COMMON] unsigned char 
  2215 ;; Return value:  Size  Location     Type
  2216 ;;                  1    wreg      void 
  2217 ;; Registers used:
  2218 ;;		wreg, fsr0l, fsr0h, status,2, status,0, pclath, cstack
  2219 ;; Tracked objects:
  2220 ;;		On entry : 1F/0
  2221 ;;		On exit  : 1F/2
  2222 ;;		Unchanged: 0/0
  2223 ;; Data sizes:     COMMON   BANK0   BANK1
  2224 ;;      Params:         2       0       0
  2225 ;;      Locals:         1       0       0
  2226 ;;      Temps:          2       0       0
  2227 ;;      Totals:         5       0       0
  2228 ;;Total ram usage:        5 bytes
  2229 ;; Hardware stack levels used:    1
  2230 ;; Hardware stack levels required when called:    1
  2231 ;; This function calls:
  2232 ;;		_display_place
  2233 ;; This function is called by:
  2234 ;;		_ISR
  2235 ;; This function uses a non-reentrant model
  2236 ;;
  2237                           
  2238                           
  2239                           ;psect for function _display_2seg_hc
  2240  0277                     _display_2seg_hc:	
  2241                           
  2242                           ;incstack = 0
  2243                           ; Regs used in _display_2seg_hc: [wreg-fsr0h+status,2+status,0+pclath+cstack]
  2244                           ;display_2seg_hc@num stored from wreg
  2245  0277  00F7               	movwf	display_2seg_hc@num
  2246                           
  2247                           ;../library/ledtube.c: 157:     switch(seg) {
  2248  0278  2A94               	goto	i1l1137
  2249  0279                     i1l259:	
  2250                           ;../library/ledtube.c: 158:         case 4:
  2251                           
  2252                           
  2253                           ;../library/ledtube.c: 159:                 TRISC5 = TRISC3 = 0;
  2254  0279  0021               	movlb	1	; select bank1
  2255  027A  118E               	bcf	14,3	;volatile
  2256  027B  128E               	bcf	14,5	;volatile
  2257                           
  2258                           ;../library/ledtube.c: 160:                 LATC5 = 1; LATC3 = 1;
  2259  027C  0022               	movlb	2	; select bank2
  2260  027D  168E               	bsf	14,5	;volatile
  2261  027E  2A84               	goto	L1
  2262  027F                     i1l261:	
  2263                           ;../library/ledtube.c: 162:         case 3:
  2264                           
  2265                           ;../library/ledtube.c: 161:                 break;
  2266                           
  2267                           
  2268                           ;../library/ledtube.c: 163:                 TRISC5 = TRISC3 = 0;
  2269  027F  0021               	movlb	1	; select bank1
  2270  0280  118E               	bcf	14,3	;volatile
  2271  0281  128E               	bcf	14,5	;volatile
  2272                           
  2273                           ;../library/ledtube.c: 164:                 LATC5 = 0; LATC3 = 1;
  2274  0282  0022               	movlb	2	; select bank2
  2275  0283  128E               	bcf	14,5	;volatile
  2276  0284                     L1:	
  2277  0284  158E               	bsf	14,3	;volatile
  2278                           
  2279                           ;../library/ledtube.c: 165:                 break;
  2280  0285  2AAA               	goto	i1l1139
  2281  0286                     i1l262:	
  2282                           ;../library/ledtube.c: 166:         case 2:
  2283                           
  2284                           
  2285                           ;../library/ledtube.c: 167:                 TRISC5 = TRISC3 = 0;
  2286  0286  0021               	movlb	1	; select bank1
  2287  0287  118E               	bcf	14,3	;volatile
  2288  0288  128E               	bcf	14,5	;volatile
  2289                           
  2290                           ;../library/ledtube.c: 168:                 LATC5 = 1; LATC3 = 0;
  2291  0289  0022               	movlb	2	; select bank2
  2292  028A  168E               	bsf	14,5	;volatile
  2293  028B  118E               	bcf	14,3	;volatile
  2294                           
  2295                           ;../library/ledtube.c: 169:                 break;
  2296  028C  2AAA               	goto	i1l1139
  2297  028D                     i1l263:	
  2298                           ;../library/ledtube.c: 170:         case 1:
  2299                           
  2300                           
  2301                           ;../library/ledtube.c: 171:                 TRISC5 = TRISC3 = 0;
  2302  028D  0021               	movlb	1	; select bank1
  2303  028E  118E               	bcf	14,3	;volatile
  2304  028F  128E               	bcf	14,5	;volatile
  2305                           
  2306                           ;../library/ledtube.c: 172:                 LATC5 = LATC3 = 0;
  2307  0290  0022               	movlb	2	; select bank2
  2308  0291  118E               	bcf	14,3	;volatile
  2309  0292  128E               	bcf	14,5	;volatile
  2310                           
  2311                           ;../library/ledtube.c: 173:                 break;
  2312  0293  2AAA               	goto	i1l1139
  2313  0294                     i1l1137:	
  2314  0294  0874               	movf	display_2seg_hc@seg,w
  2315  0295  00F5               	movwf	??_display_2seg_hc
  2316  0296  01F6               	clrf	??_display_2seg_hc+1
  2317                           
  2318                           ; Switch on 2 bytes has been partitioned into a top level switch of size 1, and 1 sub-sw
      +                          itches
  2319                           ; Switch size 1, requested type "simple"
  2320                           ; Number of cases is 1, Range of values is 0 to 0
  2321                           ; switch strategies available:
  2322                           ; Name         Instructions Cycles
  2323                           ; simple_byte            4     3 (average)
  2324                           ; direct_byte            8     6 (fixed)
  2325                           ; jumptable            260     6 (fixed)
  2326                           ;	Chosen strategy is simple_byte
  2327  0297  0876               	movf	??_display_2seg_hc+1,w
  2328  0298  3A00               	xorlw	0	; case 0
  2329  0299  1903               	skipnz
  2330  029A  2A9C               	goto	i1l1349
  2331  029B  2AAA               	goto	i1l1139
  2332  029C                     i1l1349:	
  2333                           
  2334                           ; Switch size 1, requested type "simple"
  2335                           ; Number of cases is 4, Range of values is 1 to 4
  2336                           ; switch strategies available:
  2337                           ; Name         Instructions Cycles
  2338                           ; simple_byte           13     7 (average)
  2339                           ; direct_byte           17     9 (fixed)
  2340                           ; jumptable            263     9 (fixed)
  2341                           ;	Chosen strategy is simple_byte
  2342  029C  0875               	movf	??_display_2seg_hc,w
  2343  029D  3A01               	xorlw	1	; case 1
  2344  029E  1903               	skipnz
  2345  029F  2A8D               	goto	i1l263
  2346  02A0  3A03               	xorlw	3	; case 2
  2347  02A1  1903               	skipnz
  2348  02A2  2A86               	goto	i1l262
  2349  02A3  3A01               	xorlw	1	; case 3
  2350  02A4  1903               	skipnz
  2351  02A5  2A7F               	goto	i1l261
  2352  02A6  3A07               	xorlw	7	; case 4
  2353  02A7  1903               	skipnz
  2354  02A8  2A79               	goto	i1l259
  2355  02A9  2AAA               	goto	i1l1139
  2356  02AA                     i1l1139:	
  2357                           
  2358                           ;../library/ledtube.c: 176:     display_place(num);
  2359  02AA  0877               	movf	display_2seg_hc@num,w
  2360  02AB  205E               	fcall	_display_place
  2361                           
  2362                           ;../library/ledtube.c: 179:     if(dp) {
  2363  02AC  0873               	movf	display_2seg_hc@dp,w
  2364  02AD  1903               	btfsc	3,2
  2365  02AE  2AB4               	goto	i1l264
  2366                           
  2367                           ;../library/ledtube.c: 180:         TRISA4 = 0;
  2368  02AF  0021               	movlb	1	; select bank1
  2369  02B0  120C               	bcf	12,4	;volatile
  2370                           
  2371                           ;../library/ledtube.c: 181:         LATA4 = 0;
  2372  02B1  0022               	movlb	2	; select bank2
  2373  02B2  120C               	bcf	12,4	;volatile
  2374                           
  2375                           ;../library/ledtube.c: 182:     }else {
  2376  02B3  0008               	return
  2377  02B4                     i1l264:	
  2378                           
  2379                           ;../library/ledtube.c: 183:         TRISA4 = 1;
  2380  02B4  0021               	movlb	1	; select bank1
  2381  02B5  160C               	bsf	12,4	;volatile
  2382                           
  2383                           ;../library/ledtube.c: 184:         LATA4 = 0;
  2384  02B6  0022               	movlb	2	; select bank2
  2385  02B7  120C               	bcf	12,4	;volatile
  2386  02B8  0008               	return
  2387  02B9                     __end_of_display_2seg_hc:	
  2388                           
  2389                           	psect	text11
  2390  005E                     __ptext11:	
  2391 ;; *************** function _display_place *****************
  2392 ;; Defined at:
  2393 ;;		line 43 in file "../library/ledtube.c"
  2394 ;; Parameters:    Size  Location     Type
  2395 ;;  num             1    wreg     unsigned char 
  2396 ;; Auto vars:     Size  Location     Type
  2397 ;;  num             1    2[COMMON] unsigned char 
  2398 ;; Return value:  Size  Location     Type
  2399 ;;                  1    wreg      void 
  2400 ;; Registers used:
  2401 ;;		wreg, fsr0l, fsr0h, status,2, status,0
  2402 ;; Tracked objects:
  2403 ;;		On entry : 1D/2
  2404 ;;		On exit  : 1F/2
  2405 ;;		Unchanged: 0/0
  2406 ;; Data sizes:     COMMON   BANK0   BANK1
  2407 ;;      Params:         0       0       0
  2408 ;;      Locals:         1       0       0
  2409 ;;      Temps:          2       0       0
  2410 ;;      Totals:         3       0       0
  2411 ;;Total ram usage:        3 bytes
  2412 ;; Hardware stack levels used:    1
  2413 ;; This function calls:
  2414 ;;		Nothing
  2415 ;; This function is called by:
  2416 ;;		_display_2seg_hc
  2417 ;; This function uses a non-reentrant model
  2418 ;;
  2419                           
  2420                           
  2421                           ;psect for function _display_place
  2422  005E                     _display_place:	
  2423                           
  2424                           ;incstack = 0
  2425                           ; Regs used in _display_place: [wreg-fsr0h+status,2+status,0]
  2426                           ;display_place@num stored from wreg
  2427  005E  00F2               	movwf	display_place@num
  2428                           
  2429                           ;../library/ledtube.c: 46:     switch(num) {
  2430  005F  29CD               	goto	i1l1127
  2431  0060                     i1l229:	
  2432                           ;../library/ledtube.c: 47:         case 0:
  2433                           
  2434                           
  2435                           ;../library/ledtube.c: 48:                 TRISC4 = TRISA1 = TRISA2 = TRISC0 = TRISC1 = 
      +                          TRISC2 = 0;
  2436  0060  0021               	movlb	1	; select bank1
  2437  0061  110E               	bcf	14,2	;volatile
  2438  0062  108E               	bcf	14,1	;volatile
  2439  0063  100E               	bcf	14,0	;volatile
  2440  0064  110C               	bcf	12,2	;volatile
  2441  0065  108C               	bcf	12,1	;volatile
  2442  0066  120E               	bcf	14,4	;volatile
  2443                           
  2444                           ;../library/ledtube.c: 49:                 LATC4 = LATA1 = LATA2 = LATC0 = LATC1 = LATC2
      +                           = 0;
  2445  0067  0022               	movlb	2	; select bank2
  2446  0068  110E               	bcf	14,2	;volatile
  2447  0069  108E               	bcf	14,1	;volatile
  2448  006A  100E               	bcf	14,0	;volatile
  2449  006B  110C               	bcf	12,2	;volatile
  2450  006C  108C               	bcf	12,1	;volatile
  2451  006D  120E               	bcf	14,4	;volatile
  2452                           
  2453                           ;../library/ledtube.c: 50:                 TRISA5 = TRISA4 = 1;
  2454  006E  0021               	movlb	1	; select bank1
  2455  006F  160C               	bsf	12,4	;volatile
  2456  0070  1E0C               	btfss	12,4	;volatile
  2457  0071  2875               	goto	u51_20
  2458  0072  0021               	movlb	1	; select bank1
  2459  0073  168C               	bsf	12,5	;volatile
  2460  0074  2877               	goto	u52_24
  2461  0075                     u51_20:	
  2462  0075  0021               	movlb	1	; select bank1
  2463  0076  128C               	bcf	12,5	;volatile
  2464  0077                     u52_24:	
  2465                           
  2466                           ;../library/ledtube.c: 51:                 LATA5 = LATA4 = 0;
  2467  0077  0022               	movlb	2	; select bank2
  2468  0078  120C               	bcf	12,4	;volatile
  2469  0079  128C               	bcf	12,5	;volatile
  2470                           
  2471                           ;../library/ledtube.c: 52:                 break;
  2472  007A  0008               	return
  2473  007B                     i1l231:	
  2474                           ;../library/ledtube.c: 53:         case 1:
  2475                           
  2476                           
  2477                           ;../library/ledtube.c: 54:                 TRISA1 = TRISA2 = 0;
  2478  007B  0021               	movlb	1	; select bank1
  2479  007C  110C               	bcf	12,2	;volatile
  2480  007D  108C               	bcf	12,1	;volatile
  2481                           
  2482                           ;../library/ledtube.c: 55:                 LATA1 = LATA2 = 0;
  2483  007E  0022               	movlb	2	; select bank2
  2484  007F  110C               	bcf	12,2	;volatile
  2485  0080  108C               	bcf	12,1	;volatile
  2486                           
  2487                           ;../library/ledtube.c: 56:                 TRISC4 = TRISC0 = TRISC1 = TRISC2 = TRISA5 = 
      +                          TRISA4 = 1;
  2488  0081  0021               	movlb	1	; select bank1
  2489  0082  160C               	bsf	12,4	;volatile
  2490  0083  1E0C               	btfss	12,4	;volatile
  2491  0084  2888               	goto	u53_20
  2492  0085  0021               	movlb	1	; select bank1
  2493  0086  168C               	bsf	12,5	;volatile
  2494  0087  288A               	goto	u54_24
  2495  0088                     u53_20:	
  2496  0088  0021               	movlb	1	; select bank1
  2497  0089  128C               	bcf	12,5	;volatile
  2498  008A                     u54_24:	
  2499  008A  1E8C               	btfss	12,5	;volatile
  2500  008B  288F               	goto	u54_20
  2501  008C  0021               	movlb	1	; select bank1
  2502  008D  150E               	bsf	14,2	;volatile
  2503  008E  2891               	goto	u55_24
  2504  008F                     u54_20:	
  2505  008F  0021               	movlb	1	; select bank1
  2506  0090  110E               	bcf	14,2	;volatile
  2507  0091                     u55_24:	
  2508  0091  1D0E               	btfss	14,2	;volatile
  2509  0092  2896               	goto	u55_20
  2510  0093  0021               	movlb	1	; select bank1
  2511  0094  148E               	bsf	14,1	;volatile
  2512  0095  2898               	goto	u56_24
  2513  0096                     u55_20:	
  2514  0096  0021               	movlb	1	; select bank1
  2515  0097  108E               	bcf	14,1	;volatile
  2516  0098                     u56_24:	
  2517  0098  1C8E               	btfss	14,1	;volatile
  2518  0099  289D               	goto	u56_20
  2519  009A  0021               	movlb	1	; select bank1
  2520  009B  140E               	bsf	14,0	;volatile
  2521  009C  289F               	goto	u57_24
  2522  009D                     u56_20:	
  2523  009D  0021               	movlb	1	; select bank1
  2524  009E  100E               	bcf	14,0	;volatile
  2525  009F                     u57_24:	
  2526  009F  1C0E               	btfss	14,0	;volatile
  2527  00A0  28A4               	goto	u57_20
  2528  00A1  0021               	movlb	1	; select bank1
  2529  00A2  160E               	bsf	14,4	;volatile
  2530  00A3  28A6               	goto	u58_24
  2531  00A4                     u57_20:	
  2532  00A4  0021               	movlb	1	; select bank1
  2533  00A5  120E               	bcf	14,4	;volatile
  2534  00A6                     u58_24:	
  2535                           
  2536                           ;../library/ledtube.c: 57:                 LATC4 = LATC0 = LATC1 = LATC2 = LATA5 = LATA4
      +                           = 0;
  2537  00A6  0022               	movlb	2	; select bank2
  2538  00A7  120C               	bcf	12,4	;volatile
  2539  00A8  128C               	bcf	12,5	;volatile
  2540  00A9  110E               	bcf	14,2	;volatile
  2541  00AA  108E               	bcf	14,1	;volatile
  2542  00AB  100E               	bcf	14,0	;volatile
  2543  00AC  120E               	bcf	14,4	;volatile
  2544                           
  2545                           ;../library/ledtube.c: 58:                 break;
  2546  00AD  0008               	return
  2547  00AE                     i1l232:	
  2548                           ;../library/ledtube.c: 59:         case 2:
  2549                           
  2550                           
  2551                           ;../library/ledtube.c: 60:                 TRISC4 = TRISA1 = TRISA5 = TRISC1 = TRISC0 = 
      +                          0;
  2552  00AE  0021               	movlb	1	; select bank1
  2553  00AF  100E               	bcf	14,0	;volatile
  2554  00B0  108E               	bcf	14,1	;volatile
  2555  00B1  128C               	bcf	12,5	;volatile
  2556  00B2  108C               	bcf	12,1	;volatile
  2557  00B3  120E               	bcf	14,4	;volatile
  2558                           
  2559                           ;../library/ledtube.c: 61:                 LATC4 = LATA1 = LATA5 = LATC1 = LATC0 = 0;
  2560  00B4  0022               	movlb	2	; select bank2
  2561  00B5  100E               	bcf	14,0	;volatile
  2562  00B6  108E               	bcf	14,1	;volatile
  2563  00B7  128C               	bcf	12,5	;volatile
  2564  00B8  108C               	bcf	12,1	;volatile
  2565  00B9  120E               	bcf	14,4	;volatile
  2566                           
  2567                           ;../library/ledtube.c: 62:                 TRISA2 = TRISC2 = TRISA4 = 1;
  2568  00BA  0021               	movlb	1	; select bank1
  2569  00BB  160C               	bsf	12,4	;volatile
  2570  00BC  1E0C               	btfss	12,4	;volatile
  2571  00BD  28C1               	goto	u59_20
  2572  00BE  0021               	movlb	1	; select bank1
  2573  00BF  150E               	bsf	14,2	;volatile
  2574  00C0  28C3               	goto	u60_24
  2575  00C1                     u59_20:	
  2576  00C1  0021               	movlb	1	; select bank1
  2577  00C2  110E               	bcf	14,2	;volatile
  2578  00C3                     u60_24:	
  2579  00C3  1D0E               	btfss	14,2	;volatile
  2580  00C4  28C8               	goto	u60_20
  2581  00C5  0021               	movlb	1	; select bank1
  2582  00C6  150C               	bsf	12,2	;volatile
  2583  00C7  28CA               	goto	u61_24
  2584  00C8                     u60_20:	
  2585  00C8  0021               	movlb	1	; select bank1
  2586  00C9  110C               	bcf	12,2	;volatile
  2587  00CA                     u61_24:	
  2588                           
  2589                           ;../library/ledtube.c: 63:                 LATA2 = LATC2 = LATA4 = 0;
  2590  00CA  0022               	movlb	2	; select bank2
  2591  00CB  120C               	bcf	12,4	;volatile
  2592  00CC  110E               	bcf	14,2	;volatile
  2593  00CD  110C               	bcf	12,2	;volatile
  2594                           
  2595                           ;../library/ledtube.c: 64:                 break;
  2596  00CE  0008               	return
  2597  00CF                     i1l233:	
  2598                           ;../library/ledtube.c: 65:         case 3:
  2599                           
  2600                           
  2601                           ;../library/ledtube.c: 66:                 TRISC4 = TRISA1 = TRISA2 = TRISC0 = TRISA5 = 
      +                          0;
  2602  00CF  0021               	movlb	1	; select bank1
  2603  00D0  128C               	bcf	12,5	;volatile
  2604  00D1  100E               	bcf	14,0	;volatile
  2605  00D2  110C               	bcf	12,2	;volatile
  2606  00D3  108C               	bcf	12,1	;volatile
  2607  00D4  120E               	bcf	14,4	;volatile
  2608                           
  2609                           ;../library/ledtube.c: 67:                 LATC4 = LATA1 = LATA2 = LATC0 = LATA5 = 0;
  2610  00D5  0022               	movlb	2	; select bank2
  2611  00D6  128C               	bcf	12,5	;volatile
  2612  00D7  100E               	bcf	14,0	;volatile
  2613  00D8  110C               	bcf	12,2	;volatile
  2614  00D9  108C               	bcf	12,1	;volatile
  2615  00DA  120E               	bcf	14,4	;volatile
  2616                           
  2617                           ;../library/ledtube.c: 68:                 TRISC1 = TRISC2 = TRISA4 = 1;
  2618  00DB  0021               	movlb	1	; select bank1
  2619  00DC  160C               	bsf	12,4	;volatile
  2620  00DD  1E0C               	btfss	12,4	;volatile
  2621  00DE  28E2               	goto	u62_20
  2622  00DF  0021               	movlb	1	; select bank1
  2623  00E0  150E               	bsf	14,2	;volatile
  2624  00E1  28E4               	goto	u63_24
  2625  00E2                     u62_20:	
  2626  00E2  0021               	movlb	1	; select bank1
  2627  00E3  110E               	bcf	14,2	;volatile
  2628  00E4                     u63_24:	
  2629  00E4  1D0E               	btfss	14,2	;volatile
  2630  00E5  28E9               	goto	u63_20
  2631  00E6  0021               	movlb	1	; select bank1
  2632  00E7  148E               	bsf	14,1	;volatile
  2633  00E8  28EB               	goto	u64_24
  2634  00E9                     u63_20:	
  2635  00E9  0021               	movlb	1	; select bank1
  2636  00EA  108E               	bcf	14,1	;volatile
  2637  00EB                     u64_24:	
  2638                           
  2639                           ;../library/ledtube.c: 69:                 LATC1 = LATC2 = LATA4 = 0;
  2640  00EB  0022               	movlb	2	; select bank2
  2641  00EC  120C               	bcf	12,4	;volatile
  2642  00ED  110E               	bcf	14,2	;volatile
  2643  00EE  108E               	bcf	14,1	;volatile
  2644                           
  2645                           ;../library/ledtube.c: 70:                 break;
  2646  00EF  0008               	return
  2647  00F0                     i1l234:	
  2648                           ;../library/ledtube.c: 71:         case 4:
  2649                           
  2650                           
  2651                           ;../library/ledtube.c: 72:                 TRISA1 = TRISA2 = TRISC2 = TRISA5 = 0;
  2652  00F0  0021               	movlb	1	; select bank1
  2653  00F1  128C               	bcf	12,5	;volatile
  2654  00F2  110E               	bcf	14,2	;volatile
  2655  00F3  110C               	bcf	12,2	;volatile
  2656  00F4  108C               	bcf	12,1	;volatile
  2657                           
  2658                           ;../library/ledtube.c: 73:                 LATA1 = LATA2 = LATC2 = LATA5 = 0;
  2659  00F5  0022               	movlb	2	; select bank2
  2660  00F6  128C               	bcf	12,5	;volatile
  2661  00F7  110E               	bcf	14,2	;volatile
  2662  00F8  110C               	bcf	12,2	;volatile
  2663  00F9  108C               	bcf	12,1	;volatile
  2664                           
  2665                           ;../library/ledtube.c: 74:                 TRISC4 = TRISC0 = TRISC1 = TRISA4 = 1;
  2666  00FA  0021               	movlb	1	; select bank1
  2667  00FB  160C               	bsf	12,4	;volatile
  2668  00FC  1E0C               	btfss	12,4	;volatile
  2669  00FD  2901               	goto	u65_20
  2670  00FE  0021               	movlb	1	; select bank1
  2671  00FF  148E               	bsf	14,1	;volatile
  2672  0100  2903               	goto	u66_24
  2673  0101                     u65_20:	
  2674  0101  0021               	movlb	1	; select bank1
  2675  0102  108E               	bcf	14,1	;volatile
  2676  0103                     u66_24:	
  2677  0103  1C8E               	btfss	14,1	;volatile
  2678  0104  2908               	goto	u66_20
  2679  0105  0021               	movlb	1	; select bank1
  2680  0106  140E               	bsf	14,0	;volatile
  2681  0107  290A               	goto	u67_24
  2682  0108                     u66_20:	
  2683  0108  0021               	movlb	1	; select bank1
  2684  0109  100E               	bcf	14,0	;volatile
  2685  010A                     u67_24:	
  2686  010A  1C0E               	btfss	14,0	;volatile
  2687  010B  290F               	goto	u67_20
  2688  010C  0021               	movlb	1	; select bank1
  2689  010D  160E               	bsf	14,4	;volatile
  2690  010E  2911               	goto	u68_24
  2691  010F                     u67_20:	
  2692  010F  0021               	movlb	1	; select bank1
  2693  0110  120E               	bcf	14,4	;volatile
  2694  0111                     u68_24:	
  2695                           
  2696                           ;../library/ledtube.c: 75:                 LATC4 = LATC0 = LATC1 = LATA4 = 0;
  2697  0111  0022               	movlb	2	; select bank2
  2698  0112  120C               	bcf	12,4	;volatile
  2699  0113  108E               	bcf	14,1	;volatile
  2700  0114  100E               	bcf	14,0	;volatile
  2701  0115  120E               	bcf	14,4	;volatile
  2702                           
  2703                           ;../library/ledtube.c: 76:                 break;
  2704  0116  0008               	return
  2705  0117                     i1l235:	
  2706                           ;../library/ledtube.c: 77:         case 5:
  2707                           
  2708                           
  2709                           ;../library/ledtube.c: 78:                 TRISC4 = TRISA2 = TRISC0 = TRISC2 = TRISA5 = 
      +                          0;
  2710  0117  0021               	movlb	1	; select bank1
  2711  0118  128C               	bcf	12,5	;volatile
  2712  0119  110E               	bcf	14,2	;volatile
  2713  011A  100E               	bcf	14,0	;volatile
  2714  011B  110C               	bcf	12,2	;volatile
  2715  011C  120E               	bcf	14,4	;volatile
  2716                           
  2717                           ;../library/ledtube.c: 79:                 LATC4 = LATA2 = LATC0 = LATC2 = LATA5 = 0;
  2718  011D  0022               	movlb	2	; select bank2
  2719  011E  128C               	bcf	12,5	;volatile
  2720  011F  110E               	bcf	14,2	;volatile
  2721  0120  100E               	bcf	14,0	;volatile
  2722  0121  110C               	bcf	12,2	;volatile
  2723  0122  120E               	bcf	14,4	;volatile
  2724                           
  2725                           ;../library/ledtube.c: 80:                 TRISA1 = TRISC1 = TRISA4 = 1;
  2726  0123  0021               	movlb	1	; select bank1
  2727  0124  160C               	bsf	12,4	;volatile
  2728  0125  1E0C               	btfss	12,4	;volatile
  2729  0126  292A               	goto	u69_20
  2730  0127  0021               	movlb	1	; select bank1
  2731  0128  148E               	bsf	14,1	;volatile
  2732  0129  292C               	goto	u70_24
  2733  012A                     u69_20:	
  2734  012A  0021               	movlb	1	; select bank1
  2735  012B  108E               	bcf	14,1	;volatile
  2736  012C                     u70_24:	
  2737  012C  1C8E               	btfss	14,1	;volatile
  2738  012D  2931               	goto	u70_20
  2739  012E  0021               	movlb	1	; select bank1
  2740  012F  148C               	bsf	12,1	;volatile
  2741  0130  2933               	goto	u71_24
  2742  0131                     u70_20:	
  2743  0131  0021               	movlb	1	; select bank1
  2744  0132  108C               	bcf	12,1	;volatile
  2745  0133                     u71_24:	
  2746                           
  2747                           ;../library/ledtube.c: 81:                 LATA1 = LATC1 = LATA4 = 0;
  2748  0133  0022               	movlb	2	; select bank2
  2749  0134  120C               	bcf	12,4	;volatile
  2750  0135  108E               	bcf	14,1	;volatile
  2751  0136  108C               	bcf	12,1	;volatile
  2752                           
  2753                           ;../library/ledtube.c: 82:                 break;
  2754  0137  0008               	return
  2755  0138                     i1l236:	
  2756                           ;../library/ledtube.c: 83:         case 6:
  2757                           
  2758                           
  2759                           ;../library/ledtube.c: 84:                 TRISC4 = TRISA2 = TRISC0 = TRISC1 = TRISC2 = 
      +                          TRISA5 = 0;
  2760  0138  0021               	movlb	1	; select bank1
  2761  0139  128C               	bcf	12,5	;volatile
  2762  013A  110E               	bcf	14,2	;volatile
  2763  013B  108E               	bcf	14,1	;volatile
  2764  013C  100E               	bcf	14,0	;volatile
  2765  013D  110C               	bcf	12,2	;volatile
  2766  013E  120E               	bcf	14,4	;volatile
  2767                           
  2768                           ;../library/ledtube.c: 85:                 LATC4 = LATA2 = LATC0 = LATC1 = LATC2 = LATA5
      +                           = 0;
  2769  013F  0022               	movlb	2	; select bank2
  2770  0140  128C               	bcf	12,5	;volatile
  2771  0141  110E               	bcf	14,2	;volatile
  2772  0142  108E               	bcf	14,1	;volatile
  2773  0143  100E               	bcf	14,0	;volatile
  2774  0144  110C               	bcf	12,2	;volatile
  2775  0145  120E               	bcf	14,4	;volatile
  2776                           
  2777                           ;../library/ledtube.c: 86:                 TRISA1 = TRISA4 = 1;
  2778  0146  0021               	movlb	1	; select bank1
  2779  0147  160C               	bsf	12,4	;volatile
  2780  0148  1E0C               	btfss	12,4	;volatile
  2781  0149  294D               	goto	u72_20
  2782  014A  0021               	movlb	1	; select bank1
  2783  014B  148C               	bsf	12,1	;volatile
  2784  014C  294F               	goto	u73_24
  2785  014D                     u72_20:	
  2786  014D  0021               	movlb	1	; select bank1
  2787  014E  108C               	bcf	12,1	;volatile
  2788  014F                     u73_24:	
  2789                           
  2790                           ;../library/ledtube.c: 87:                 LATA1 = LATA4 = 0;
  2791  014F  0022               	movlb	2	; select bank2
  2792  0150  120C               	bcf	12,4	;volatile
  2793  0151  108C               	bcf	12,1	;volatile
  2794                           
  2795                           ;../library/ledtube.c: 88:                 break;
  2796  0152  0008               	return
  2797  0153                     i1l237:	
  2798                           ;../library/ledtube.c: 89:         case 7:
  2799                           
  2800                           
  2801                           ;../library/ledtube.c: 90:                 TRISC4 = TRISA1 = TRISA2 = 0;
  2802  0153  0021               	movlb	1	; select bank1
  2803  0154  110C               	bcf	12,2	;volatile
  2804  0155  108C               	bcf	12,1	;volatile
  2805  0156  120E               	bcf	14,4	;volatile
  2806                           
  2807                           ;../library/ledtube.c: 91:                 LATC4 = LATA1 = LATA2 = 0;
  2808  0157  0022               	movlb	2	; select bank2
  2809  0158  110C               	bcf	12,2	;volatile
  2810  0159  108C               	bcf	12,1	;volatile
  2811  015A  120E               	bcf	14,4	;volatile
  2812                           
  2813                           ;../library/ledtube.c: 92:                 TRISC0 = TRISC1 = TRISC2 = TRISA5 = TRISA4 = 
      +                          1;
  2814  015B  0021               	movlb	1	; select bank1
  2815  015C  160C               	bsf	12,4	;volatile
  2816  015D  1E0C               	btfss	12,4	;volatile
  2817  015E  2962               	goto	u74_20
  2818  015F  0021               	movlb	1	; select bank1
  2819  0160  168C               	bsf	12,5	;volatile
  2820  0161  2964               	goto	u75_24
  2821  0162                     u74_20:	
  2822  0162  0021               	movlb	1	; select bank1
  2823  0163  128C               	bcf	12,5	;volatile
  2824  0164                     u75_24:	
  2825  0164  1E8C               	btfss	12,5	;volatile
  2826  0165  2969               	goto	u75_20
  2827  0166  0021               	movlb	1	; select bank1
  2828  0167  150E               	bsf	14,2	;volatile
  2829  0168  296B               	goto	u76_24
  2830  0169                     u75_20:	
  2831  0169  0021               	movlb	1	; select bank1
  2832  016A  110E               	bcf	14,2	;volatile
  2833  016B                     u76_24:	
  2834  016B  1D0E               	btfss	14,2	;volatile
  2835  016C  2970               	goto	u76_20
  2836  016D  0021               	movlb	1	; select bank1
  2837  016E  148E               	bsf	14,1	;volatile
  2838  016F  2972               	goto	u77_24
  2839  0170                     u76_20:	
  2840  0170  0021               	movlb	1	; select bank1
  2841  0171  108E               	bcf	14,1	;volatile
  2842  0172                     u77_24:	
  2843  0172  1C8E               	btfss	14,1	;volatile
  2844  0173  2977               	goto	u77_20
  2845  0174  0021               	movlb	1	; select bank1
  2846  0175  140E               	bsf	14,0	;volatile
  2847  0176  2979               	goto	u78_24
  2848  0177                     u77_20:	
  2849  0177  0021               	movlb	1	; select bank1
  2850  0178  100E               	bcf	14,0	;volatile
  2851  0179                     u78_24:	
  2852                           
  2853                           ;../library/ledtube.c: 93:                 LATC0 = LATC1 = LATC2 = LATA5 = LATA4 = 0;
  2854  0179  0022               	movlb	2	; select bank2
  2855  017A  120C               	bcf	12,4	;volatile
  2856  017B  128C               	bcf	12,5	;volatile
  2857  017C  110E               	bcf	14,2	;volatile
  2858  017D  108E               	bcf	14,1	;volatile
  2859  017E  100E               	bcf	14,0	;volatile
  2860                           
  2861                           ;../library/ledtube.c: 94:                 break;
  2862  017F  0008               	return
  2863  0180                     i1l238:	
  2864                           ;../library/ledtube.c: 95:         case 8:
  2865                           
  2866                           
  2867                           ;../library/ledtube.c: 96:                 TRISC4 = TRISA1 = TRISA2 = TRISC0 = TRISC1 = 
      +                          TRISC2 = TRISA5 = 0;
  2868  0180  0021               	movlb	1	; select bank1
  2869  0181  128C               	bcf	12,5	;volatile
  2870  0182  110E               	bcf	14,2	;volatile
  2871  0183  108E               	bcf	14,1	;volatile
  2872  0184  100E               	bcf	14,0	;volatile
  2873  0185  110C               	bcf	12,2	;volatile
  2874  0186  108C               	bcf	12,1	;volatile
  2875  0187  120E               	bcf	14,4	;volatile
  2876                           
  2877                           ;../library/ledtube.c: 97:                 LATC4 = LATA1 = LATA2 = LATC0 = LATC1 = LATC2
      +                           = LATA5 = 0;
  2878  0188  0022               	movlb	2	; select bank2
  2879  0189  128C               	bcf	12,5	;volatile
  2880  018A  110E               	bcf	14,2	;volatile
  2881  018B  108E               	bcf	14,1	;volatile
  2882  018C  100E               	bcf	14,0	;volatile
  2883  018D  110C               	bcf	12,2	;volatile
  2884  018E  108C               	bcf	12,1	;volatile
  2885  018F  120E               	bcf	14,4	;volatile
  2886                           
  2887                           ;../library/ledtube.c: 98:                 break;
  2888  0190  0008               	return
  2889  0191                     i1l239:	
  2890                           ;../library/ledtube.c: 99:         case 9:
  2891                           
  2892                           
  2893                           ;../library/ledtube.c: 100:                 TRISC4 = TRISA1 = TRISA2 = TRISC0 = TRISC2 =
      +                           TRISA5 = 0;
  2894  0191  0021               	movlb	1	; select bank1
  2895  0192  128C               	bcf	12,5	;volatile
  2896  0193  110E               	bcf	14,2	;volatile
  2897  0194  100E               	bcf	14,0	;volatile
  2898  0195  110C               	bcf	12,2	;volatile
  2899  0196  108C               	bcf	12,1	;volatile
  2900  0197  120E               	bcf	14,4	;volatile
  2901                           
  2902                           ;../library/ledtube.c: 101:                 LATC4 = LATA1 = LATA2 = LATC0 = LATC2 = LATA
      +                          5 = 0;
  2903  0198  0022               	movlb	2	; select bank2
  2904  0199  128C               	bcf	12,5	;volatile
  2905  019A  110E               	bcf	14,2	;volatile
  2906  019B  100E               	bcf	14,0	;volatile
  2907  019C  110C               	bcf	12,2	;volatile
  2908  019D  108C               	bcf	12,1	;volatile
  2909  019E  120E               	bcf	14,4	;volatile
  2910                           
  2911                           ;../library/ledtube.c: 102:                 TRISC1 = TRISA4 = 1;
  2912  019F  0021               	movlb	1	; select bank1
  2913  01A0  160C               	bsf	12,4	;volatile
  2914  01A1  1E0C               	btfss	12,4	;volatile
  2915  01A2  29A6               	goto	u79_20
  2916  01A3  0021               	movlb	1	; select bank1
  2917  01A4  148E               	bsf	14,1	;volatile
  2918  01A5  29A8               	goto	u80_24
  2919  01A6                     u79_20:	
  2920  01A6  0021               	movlb	1	; select bank1
  2921  01A7  108E               	bcf	14,1	;volatile
  2922  01A8                     u80_24:	
  2923                           
  2924                           ;../library/ledtube.c: 103:                 LATC1 = LATA4 = 0;
  2925  01A8  0022               	movlb	2	; select bank2
  2926  01A9  120C               	bcf	12,4	;volatile
  2927  01AA  108E               	bcf	14,1	;volatile
  2928                           
  2929                           ;../library/ledtube.c: 104:                 break;
  2930  01AB  0008               	return
  2931  01AC                     i1l241:	
  2932                           ;../library/ledtube.c: 106:         case 'E':
  2933                           
  2934                           
  2935                           ;../library/ledtube.c: 107:                 TRISC4 = TRISC0 = TRISC1 = TRISC2 = TRISA5 =
      +                           0;
  2936  01AC  0021               	movlb	1	; select bank1
  2937  01AD  128C               	bcf	12,5	;volatile
  2938  01AE  110E               	bcf	14,2	;volatile
  2939  01AF  108E               	bcf	14,1	;volatile
  2940  01B0  100E               	bcf	14,0	;volatile
  2941  01B1  120E               	bcf	14,4	;volatile
  2942                           
  2943                           ;../library/ledtube.c: 108:                 LATC4 = LATC0 = LATC1 = LATC2 = LATA5 = 0;
  2944  01B2  0022               	movlb	2	; select bank2
  2945  01B3  128C               	bcf	12,5	;volatile
  2946  01B4  110E               	bcf	14,2	;volatile
  2947  01B5  108E               	bcf	14,1	;volatile
  2948  01B6  100E               	bcf	14,0	;volatile
  2949  01B7  120E               	bcf	14,4	;volatile
  2950                           
  2951                           ;../library/ledtube.c: 109:                 TRISA1 = TRISA2 = TRISA4 = 1;
  2952  01B8  0021               	movlb	1	; select bank1
  2953  01B9  160C               	bsf	12,4	;volatile
  2954  01BA  1E0C               	btfss	12,4	;volatile
  2955  01BB  29BF               	goto	u81_20
  2956  01BC  0021               	movlb	1	; select bank1
  2957  01BD  150C               	bsf	12,2	;volatile
  2958  01BE  29C1               	goto	u82_24
  2959  01BF                     u81_20:	
  2960  01BF  0021               	movlb	1	; select bank1
  2961  01C0  110C               	bcf	12,2	;volatile
  2962  01C1                     u82_24:	
  2963  01C1  1D0C               	btfss	12,2	;volatile
  2964  01C2  29C6               	goto	u82_20
  2965  01C3  0021               	movlb	1	; select bank1
  2966  01C4  148C               	bsf	12,1	;volatile
  2967  01C5  29C8               	goto	u83_24
  2968  01C6                     u82_20:	
  2969  01C6  0021               	movlb	1	; select bank1
  2970  01C7  108C               	bcf	12,1	;volatile
  2971  01C8                     u83_24:	
  2972                           
  2973                           ;../library/ledtube.c: 110:                 LATA1 = LATA2 = LATA4 = 0;
  2974  01C8  0022               	movlb	2	; select bank2
  2975  01C9  120C               	bcf	12,4	;volatile
  2976  01CA  110C               	bcf	12,2	;volatile
  2977  01CB  108C               	bcf	12,1	;volatile
  2978                           
  2979                           ;../library/ledtube.c: 111:                 break;
  2980  01CC  0008               	return
  2981  01CD                     i1l1127:	
  2982  01CD  0872               	movf	display_place@num,w
  2983  01CE  00F0               	movwf	??_display_place
  2984  01CF  01F1               	clrf	??_display_place+1
  2985                           
  2986                           ; Switch on 2 bytes has been partitioned into a top level switch of size 1, and 1 sub-sw
      +                          itches
  2987                           ; Switch size 1, requested type "simple"
  2988                           ; Number of cases is 1, Range of values is 0 to 0
  2989                           ; switch strategies available:
  2990                           ; Name         Instructions Cycles
  2991                           ; simple_byte            4     3 (average)
  2992                           ; direct_byte            8     6 (fixed)
  2993                           ; jumptable            260     6 (fixed)
  2994                           ;	Chosen strategy is simple_byte
  2995  01D0  0871               	movf	??_display_place+1,w
  2996  01D1  3A00               	xorlw	0	; case 0
  2997  01D2  1903               	skipnz
  2998  01D3  29D5               	goto	i1l1351
  2999  01D4  29AC               	goto	i1l241
  3000  01D5                     i1l1351:	
  3001                           
  3002                           ; Switch size 1, requested type "simple"
  3003                           ; Number of cases is 11, Range of values is 0 to 69
  3004                           ; switch strategies available:
  3005                           ; Name         Instructions Cycles
  3006                           ; simple_byte           34    18 (average)
  3007                           ; direct_byte          146     6 (fixed)
  3008                           ; jumptable            260     6 (fixed)
  3009                           ;	Chosen strategy is simple_byte
  3010  01D5  0870               	movf	??_display_place,w
  3011  01D6  3A00               	xorlw	0	; case 0
  3012  01D7  1903               	skipnz
  3013  01D8  2860               	goto	i1l229
  3014  01D9  3A01               	xorlw	1	; case 1
  3015  01DA  1903               	skipnz
  3016  01DB  287B               	goto	i1l231
  3017  01DC  3A03               	xorlw	3	; case 2
  3018  01DD  1903               	skipnz
  3019  01DE  28AE               	goto	i1l232
  3020  01DF  3A01               	xorlw	1	; case 3
  3021  01E0  1903               	skipnz
  3022  01E1  28CF               	goto	i1l233
  3023  01E2  3A07               	xorlw	7	; case 4
  3024  01E3  1903               	skipnz
  3025  01E4  28F0               	goto	i1l234
  3026  01E5  3A01               	xorlw	1	; case 5
  3027  01E6  1903               	skipnz
  3028  01E7  2917               	goto	i1l235
  3029  01E8  3A03               	xorlw	3	; case 6
  3030  01E9  1903               	skipnz
  3031  01EA  2938               	goto	i1l236
  3032  01EB  3A01               	xorlw	1	; case 7
  3033  01EC  1903               	skipnz
  3034  01ED  2953               	goto	i1l237
  3035  01EE  3A0F               	xorlw	15	; case 8
  3036  01EF  1903               	skipnz
  3037  01F0  2980               	goto	i1l238
  3038  01F1  3A01               	xorlw	1	; case 9
  3039  01F2  1903               	skipnz
  3040  01F3  2991               	goto	i1l239
  3041  01F4  3A4C               	xorlw	76	; case 69
  3042  01F5  1903               	skipnz
  3043  01F6  29AC               	goto	i1l241
  3044  01F7  29AC               	goto	i1l241
  3045  01F8  0008               	return
  3046  01F9                     __end_of_display_place:	
  3047  007E                     btemp	set	126	;btemp
  3048  007E                     int$flags	set	126
  3049  007E                     wtemp0	set	126


Data Sizes:
    Strings     0
    Constant    0
    Data        1
    BSS         4
    Persistent  32
    Stack       0

Auto Spaces:
    Space          Size  Autos    Used
    COMMON           14     10      11
    BANK0            80     20      24
    BANK1            32      0       0

Pointer List with Targets:

    None.

Critical Paths under _main in COMMON

    None.

Critical Paths under _ISR in COMMON

    _ISR->_display_2seg_hc
    _display_2seg_hc->_display_place

Critical Paths under _main in BANK0

    _main->___lwmod
    ___lwmod->___lwdiv

Critical Paths under _ISR in BANK0

    None.

Critical Paths under _main in BANK1

    None.

Critical Paths under _ISR in BANK1

    None.

Call Graph Tables:

 ---------------------------------------------------------------------------------
 (Depth) Function   	        Calls       Base Space   Used Autos Params    Refs
 ---------------------------------------------------------------------------------
 (0) _main                                                 6     6      0    1673
                                             14 BANK0      6     6      0
                           _ADC_Read
                          _FOSC_Init
                          _PORT_Init
                         _TIME0_Init
                            ___lwdiv
                            ___lwmod
 ---------------------------------------------------------------------------------
 (1) ___lwmod                                              6     2      4     767
                                              8 BANK0      6     2      4
                            ___lwdiv (ARG)
 ---------------------------------------------------------------------------------
 (1) ___lwdiv                                              8     4      4     744
                                              0 BANK0      8     4      4
 ---------------------------------------------------------------------------------
 (1) _TIME0_Init                                           0     0      0       0
 ---------------------------------------------------------------------------------
 (1) _PORT_Init                                            0     0      0       0
                         _PORTA_Init
                         _PORTC_Init
 ---------------------------------------------------------------------------------
 (2) _PORTC_Init                                           0     0      0       0
 ---------------------------------------------------------------------------------
 (2) _PORTA_Init                                           0     0      0       0
 ---------------------------------------------------------------------------------
 (1) _FOSC_Init                                            0     0      0       0
 ---------------------------------------------------------------------------------
 (1) _ADC_Read                                             6     4      2      26
                                              0 BANK0      6     4      2
 ---------------------------------------------------------------------------------
 Estimated maximum stack depth 2
 ---------------------------------------------------------------------------------
 (Depth) Function   	        Calls       Base Space   Used Autos Params    Refs
 ---------------------------------------------------------------------------------
 (3) _ISR                                                  2     2      0     696
                                              8 COMMON     2     2      0
                    _display_2seg_hc
 ---------------------------------------------------------------------------------
 (4) _display_2seg_hc                                      5     3      2     696
                                              3 COMMON     5     3      2
                      _display_place
 ---------------------------------------------------------------------------------
 (5) _display_place                                        3     3      0      22
                                              0 COMMON     3     3      0
 ---------------------------------------------------------------------------------
 Estimated maximum stack depth 5
 ---------------------------------------------------------------------------------

 Call Graph Graphs:

 _main (ROOT)
   _ADC_Read
   _FOSC_Init
   _PORT_Init
     _PORTA_Init
     _PORTC_Init
   _TIME0_Init
   ___lwdiv
   ___lwmod
     ___lwdiv (ARG)

 _ISR (ROOT)
   _display_2seg_hc
     _display_place

 Address spaces:
Name               Size   Autos  Total    Cost      Usage
BIGRAM              70      0       0       0        0.0%
EEDATA             100      0       0       0        0.0%
NULL                 0      0       0       0        0.0%
CODE                 0      0       0       0        0.0%
BITCOMMON            E      0       0       1        0.0%
BITSFR0              0      0       0       1        0.0%
SFR0                 0      0       0       1        0.0%
COMMON               E      A       B       2       78.6%
BITSFR1              0      0       0       2        0.0%
SFR1                 0      0       0       2        0.0%
BITSFR2              0      0       0       3        0.0%
SFR2                 0      0       0       3        0.0%
STACK                0      0       0       3        0.0%
BITSFR3              0      0       0       4        0.0%
SFR3                 0      0       0       4        0.0%
ABS                  0      0      23       4        0.0%
BITBANK0            50      0       0       5        0.0%
BITSFR4              0      0       0       5        0.0%
SFR4                 0      0       0       5        0.0%
BANK0               50     14      18       6       30.0%
BITSFR5              0      0       0       6        0.0%
SFR5                 0      0       0       6        0.0%
BITBANK1            20      0       0       7        0.0%
BITSFR6              0      0       0       7        0.0%
SFR6                 0      0       0       7        0.0%
BANK1               20      0       0       8        0.0%
BITSFR7              0      0       0       8        0.0%
SFR7                 0      0       0       8        0.0%
BITSFR8              0      0       0       9        0.0%
SFR8                 0      0       0       9        0.0%
DATA                 0      0      23       9        0.0%
BITSFR9              0      0       0      10        0.0%
SFR9                 0      0       0      10        0.0%
BITSFR10             0      0       0      11        0.0%
SFR10                0      0       0      11        0.0%
BITSFR11             0      0       0      12        0.0%
SFR11                0      0       0      12        0.0%
BITSFR12             0      0       0      13        0.0%
SFR12                0      0       0      13        0.0%
BITSFR13             0      0       0      14        0.0%
SFR13                0      0       0      14        0.0%
BITSFR14             0      0       0      15        0.0%
SFR14                0      0       0      15        0.0%
BITSFR15             0      0       0      16        0.0%
SFR15                0      0       0      16        0.0%
BITSFR16             0      0       0      17        0.0%
SFR16                0      0       0      17        0.0%
BITSFR17             0      0       0      18        0.0%
SFR17                0      0       0      18        0.0%
BITSFR18             0      0       0      19        0.0%
SFR18                0      0       0      19        0.0%
BITSFR19             0      0       0      20        0.0%
SFR19                0      0       0      20        0.0%
BITSFR20             0      0       0      21        0.0%
SFR20                0      0       0      21        0.0%
BITSFR21             0      0       0      22        0.0%
SFR21                0      0       0      22        0.0%
BITSFR22             0      0       0      23        0.0%
SFR22                0      0       0      23        0.0%
BITSFR23             0      0       0      24        0.0%
SFR23                0      0       0      24        0.0%
BITSFR24             0      0       0      25        0.0%
SFR24                0      0       0      25        0.0%
BITSFR25             0      0       0      26        0.0%
SFR25                0      0       0      26        0.0%
BITSFR26             0      0       0      27        0.0%
SFR26                0      0       0      27        0.0%
BITSFR27             0      0       0      28        0.0%
SFR27                0      0       0      28        0.0%
BITSFR28             0      0       0      29        0.0%
SFR28                0      0       0      29        0.0%
BITSFR29             0      0       0      30        0.0%
SFR29                0      0       0      30        0.0%
BITSFR30             0      0       0      31        0.0%
SFR30                0      0       0      31        0.0%
BITSFR31             0      0       0      32        0.0%
SFR31                0      0       0      32        0.0%


Microchip Technology PIC Macro Assembler V2.10 build 88905656 
Symbol Table                                                                                   Wed Sep 25 14:35:35 2019

             __CFG_CP$OFF 0000                        _GO 04E9                        _ds 0034  
                     l110 031B                       _GIE 005F              __CFG_CPD$OFF 0000  
                     _ISR 0004                       u905 02D8                       u915 02E0  
                     u945 02F6                       u875 02C4                       u965 0305  
                     u895 02CE                       u975 030C              __CFG_BORV$LO 0000  
                     wreg 0009              __CFG_LVP$OFF 0000                      ?_ISR 0070  
                    ISR@i 007A                      l1211 030B                      l1205 02F3  
                    l1207 02FF                      l1215 0314                      l1181 02C1  
                    l1183 02CD                      l1193 02E8                      l1265 0204  
                    l1189 02DF                      _ADON 04E8                      u1017 020A  
                    u1027 026F                      _LATA 010C                      _LATC 010E  
                    _PEIE 005E                      i1l49 0052            ?_display_place 0070  
                    _TMR0 0015              __CFG_WRT$OFF 0000                      _main 01F9  
                    btemp 007E          __end_of_ADC_Read 033E        __size_of_FOSC_Init 0004  
                    start 0054             __CFG_IESO$OFF 0000               ?_TIME0_Init 0070  
                   ??_ISR 0078                     ?_main 0070                     _ADRES 009B  
           __CFG_WDTE$OFF 0000                     _ANSA0 0C60                     _LATA1 0861  
                   _LATA2 0862                     _LATC0 0870                     _LATA4 0864  
                   _LATC1 0871                     _LATA5 0865                     _LATC2 0872  
                   _LATC3 0873                     _LATC4 0874                     _LATC5 0875  
         __end_of___lwdiv 02ED                     i1l231 007B                     i1l232 00AE  
                   i1l241 01AC                     i1l233 00CF                     i1l234 00F0  
                   i1l235 0117                     i1l236 0138                     i1l237 0153  
                   i1l229 0060                     i1l261 027F                     i1l238 0180  
                   i1l262 0286                     i1l239 0191                     i1l263 028D  
                   i1l264 02B4           __end_of___lwmod 0319                     i1l259 0279  
                   u51_20 0075                     _PORTA 000C                     _PORTC 000E  
                   u60_20 00C8                     u60_24 00C3                     u52_24 0077  
                   u53_20 0088                     u61_24 00CA                     u70_20 0131  
                   u62_20 00E2                     u54_20 008F                     u70_24 012C  
                   u54_24 008A                     u63_20 00E9                     u55_20 0096  
                   u71_24 0133                     u63_24 00E4                     u55_24 0091  
                   u72_20 014D                     u56_20 009D                     u80_24 01A8  
                   u64_24 00EB                     u56_24 0098                     u81_20 01BF  
                   u65_20 0101                     u57_20 00A4                     _TRISA 008C  
                   u73_24 014F                     u57_24 009F                     _TRISC 008E  
                   u82_20 01C6                     u74_20 0162                     u66_20 0108  
                   u82_24 01C1                     u66_24 0103                     u58_24 00A6  
                   u75_20 0169                     u67_20 010F                     u59_20 00C1  
                   u83_24 01C8                     u75_24 0164                     u67_24 010A  
                   u76_20 0170                     u76_24 016B                     u68_24 0111  
                   u77_20 0177                     u69_20 012A                     u77_24 0172  
                   u78_24 0179                     u79_20 01A6               ?_PORTA_Init 0070  
          __CFG_FCMEN$OFF 0000               ?_PORTC_Init 0070        __size_of_PORT_Init 0003  
                   main@i 0030                     main@t 0032            __CFG_BOREN$OFF 0000  
                   status 0003                     wtemp0 007E          ?_display_2seg_hc 0073  
          __CFG_MCLRE$OFF 0000           __initialization 0055              __end_of_main 0277  
                  ??_main 002E            __CFG_PLLEN$OFF 0000         __end_of_FOSC_Init 035E  
         ??_display_place 0070                    _ADCON0 009D                    _ADCON1 009E  
                  _ADRESH 009C                    _ADRESL 009B       __size_of_TIME0_Init 000A  
                  _ANSELA 018C                    _ANSELC 018E                    i1l1127 01CD  
                  i1l1231 002B                    i1l1137 0294                    i1l1225 000F  
                  i1l1139 02AA                    i1l1227 0018                    i1l1235 0034  
                  i1l1229 0022                    i1l1237 004A                    i1l1351 01D5  
                  i1l1347 003C                    i1l1349 029C                    _OSCCON 0099  
                  _TMR0IE 005D                    _TMR0IF 005A                    _TRISA0 0460  
                  _TRISA1 0461                    _TRISA2 0462                    _TRISC0 0470  
                  _TRISA4 0464                    _TRISC1 0471                    _TRISA5 0465  
                  _TRISC2 0472                    _TRISC3 0473                    _TRISC4 0474  
                  _TRISC5 0475            __CFG_PWRTE$OFF 0000       __size_of_PORTA_Init 0009  
     __size_of_PORTC_Init 0009                 ??___lwdiv 0024                 ??___lwmod 002C  
       __end_of_PORT_Init 0361              __pdataCOMMON 007A                 ?_ADC_Read 0020  
 __end_of__initialization 005B            __pcstackCOMMON 0070         display_2seg_hc@dp 0073  
              ??_ADC_Read 0022                __pbssBANK0 0034                __pmaintext 01F9  
            ??_TIME0_Init 0020                __pintentry 0004              ??_PORTA_Init 0020  
            ??_PORTC_Init 0020        __end_of_TIME0_Init 0348        __end_of_PORTA_Init 035A  
      __end_of_PORTC_Init 0351                   ___lwdiv 02B9                   ___lwmod 02ED  
         __CFG_STVREN$OFF 0000                   __ptext1 02ED                   __ptext2 02B9  
                 __ptext3 033E                   __ptext4 035E                   __ptext5 0348  
                 __ptext6 0351                   __ptext7 035A                   __ptext8 0319  
            __size_of_ISR 0050                 _FOSC_Init 035A      end_of_initialization 005B  
__size_of_display_2seg_hc 0042                 _PORT_Init 035E          __CFG_FOSC$INTOSC 0000  
       __size_of_ADC_Read 0025                ?_FOSC_Init 0070     __end_of_display_place 01F9  
           __pidataCOMMON 0361                ?_PORT_Init 0070       start_initialization 0055  
             __end_of_ISR 0054        display_2seg_hc@seg 0074        display_2seg_hc@num 0077  
       ??_display_2seg_hc 0075                 ___latbits 0000             __pcstackBANK0 0020  
             ??_FOSC_Init 0020          ___lwdiv@dividend 0022                  ?___lwdiv 0020  
                ?___lwmod 0028               ??_PORT_Init 0020                  _ADC_Read 0319  
        ___lwdiv@quotient 0025             ADC_Read@value 0024          __size_of___lwdiv 0034  
        __size_of___lwmod 002C           ___lwdiv@divisor 0020           ___lwdiv@counter 0027  
                __ptext10 0277                  __ptext11 005E             __size_of_main 007E  
         _display_2seg_hc 0277                  int$flags 007E          display_place@num 0072  
  __size_of_display_place 019B                  intlevel1 0000          ___lwmod@dividend 002A  
       __CFG_CLKOUTEN$OFF 0000                _TIME0_Init 033E                _OPTION_REG 0095  
         ___lwmod@divisor 0028           ___lwmod@counter 002D                _PORTA_Init 0351  
              _PORTC_Init 0348             _display_place 005E   __end_of_display_2seg_hc 02B9  
